/*SPDX-Licensen-Identifier: GPL-2.0*/

	.arch armv7-a
	.fpu softvfp
	.eabi_attribute 20, 1
	.eabi_attribute 21, 1
	.eabi_attribute 23, 3
	.eabi_attribute 24, 1
	.eabi_attribute 25, 1
	.eabi_attribute 26, 2
	.eabi_attribute 30, 2
	.eabi_attribute 34, 1
	.eabi_attribute 18, 2
	.file	"nftl.c"
	.text
	.align	2
	.global	_nand_sector_write
	.syntax unified
	.arm
	.type	_nand_sector_write, %function
_nand_sector_write:
	@ args = 0, pretend = 0, frame = 0
	@ frame_needed = 0, uses_anonymous_args = 0
	@ link register save eliminated.
	mov	r0, #0
	bx	lr
	.size	_nand_sector_write, .-_nand_sector_write
	.align	2
	.global	_nand_flush_sector_write_cache
	.syntax unified
	.arm
	.type	_nand_flush_sector_write_cache, %function
_nand_flush_sector_write_cache:
	@ args = 0, pretend = 0, frame = 0
	@ frame_needed = 0, uses_anonymous_args = 0
	@ link register save eliminated.
	mov	r0, #0
	bx	lr
	.size	_nand_flush_sector_write_cache, .-_nand_flush_sector_write_cache
	.align	2
	.global	_nftl_nand_erase_superblk
	.syntax unified
	.arm
	.type	_nftl_nand_erase_superblk, %function
_nftl_nand_erase_superblk:
	@ args = 0, pretend = 0, frame = 16
	@ frame_needed = 0, uses_anonymous_args = 0
	ldr	r2, [r0]
	mov	r3, r1
	push	{r4, r5, r6, lr}
	sub	sp, sp, #16
	ldrh	r6, [r1, #2]
	mov	r1, sp
	ldr	r2, [r2, #4]
	ldrh	r5, [r3]
	ldrh	r4, [r3, #4]
	ldr	lr, [r3, #8]
	mov	r0, r2
	ldr	ip, [r3, #12]
	strh	r6, [sp, #2]	@ movhi
	ldr	r3, [r2, #84]
	strh	r5, [sp]	@ movhi
	strh	r4, [sp, #4]	@ movhi
	str	lr, [sp, #8]
	str	ip, [sp, #12]
	blx	r3
	add	sp, sp, #16
	@ sp needed
	pop	{r4, r5, r6, pc}
	.size	_nftl_nand_erase_superblk, .-_nftl_nand_erase_superblk
	.align	2
	.global	_nftl_nand_is_blk_good
	.syntax unified
	.arm
	.type	_nftl_nand_is_blk_good, %function
_nftl_nand_is_blk_good:
	@ args = 0, pretend = 0, frame = 16
	@ frame_needed = 0, uses_anonymous_args = 0
	ldr	r2, [r0]
	mov	r3, r1
	push	{r4, r5, r6, lr}
	sub	sp, sp, #16
	ldrh	r6, [r1, #2]
	mov	r1, sp
	ldr	r2, [r2, #4]
	ldrh	r5, [r3]
	ldrh	r4, [r3, #4]
	ldr	lr, [r3, #8]
	mov	r0, r2
	ldr	ip, [r3, #12]
	strh	r6, [sp, #2]	@ movhi
	ldr	r3, [r2, #96]
	strh	r5, [sp]	@ movhi
	strh	r4, [sp, #4]	@ movhi
	str	lr, [sp, #8]
	str	ip, [sp, #12]
	blx	r3
	add	sp, sp, #16
	@ sp needed
	pop	{r4, r5, r6, pc}
	.size	_nftl_nand_is_blk_good, .-_nftl_nand_is_blk_good
	.align	2
	.global	_nftl_nand_mark_bad_blk
	.syntax unified
	.arm
	.type	_nftl_nand_mark_bad_blk, %function
_nftl_nand_mark_bad_blk:
	@ args = 0, pretend = 0, frame = 16
	@ frame_needed = 0, uses_anonymous_args = 0
	ldr	r2, [r0]
	mov	r3, r1
	push	{r4, r5, r6, lr}
	sub	sp, sp, #16
	ldrh	r6, [r1, #2]
	mov	r1, sp
	ldr	r2, [r2, #4]
	ldrh	r5, [r3]
	ldrh	r4, [r3, #4]
	ldr	lr, [r3, #8]
	mov	r0, r2
	ldr	ip, [r3, #12]
	strh	r6, [sp, #2]	@ movhi
	ldr	r3, [r2, #100]
	strh	r5, [sp]	@ movhi
	strh	r4, [sp, #4]	@ movhi
	str	lr, [sp, #8]
	str	ip, [sp, #12]
	blx	r3
	add	sp, sp, #16
	@ sp needed
	pop	{r4, r5, r6, pc}
	.size	_nftl_nand_mark_bad_blk, .-_nftl_nand_mark_bad_blk
	.align	2
	.syntax unified
	.arm
	.type	free_nrc, %function
free_nrc:
	@ args = 0, pretend = 0, frame = 0
	@ frame_needed = 0, uses_anonymous_args = 0
	cmp	r0, #0
	beq	.L15
	push	{r4, lr}
	mov	r1, #0
	mov	r4, r0
	ldr	r0, [r0, #8]
	bl	NAND_Free
	ldr	r0, [r4, #4]
	mov	r1, #0
	bl	NAND_Free
	ldr	r0, [r4, #12]
	mov	r1, #0
	bl	NAND_Free
	mov	r0, r4
	mov	r1, #0
	bl	NAND_Free
	mov	r0, #0
	pop	{r4, pc}
.L15:
	mov	r0, #0
	bx	lr
	.size	free_nrc, .-free_nrc
	.align	2
	.syntax unified
	.arm
	.type	m7_end_one_read_retry.part.1, %function
m7_end_one_read_retry.part.1:
	@ args = 0, pretend = 0, frame = 0
	@ frame_needed = 0, uses_anonymous_args = 0
	push	{r4, r5, lr}
	mov	r4, r0
	sub	sp, sp, #20
	bl	nand_enable_chip
	ldr	r0, [r4, #248]
	bl	ndfc_disable_randomize
	ldr	r0, [r4, #248]
	bl	ndfc_is_toogle_interface
	cmp	r0, #0
	bne	.L22
	movw	r5, #:lower16:.LANCHOR0
	movt	r5, #:upper16:.LANCHOR0
.L18:
	mov	r3, #0
	mov	r2, #1
	movw	r1, #:lower16:.LANCHOR1
	str	r2, [sp, #8]
	str	r3, [sp, #4]
	mov	r2, r3
	str	r3, [sp]
	movt	r1, #:upper16:.LANCHOR1
	mov	r0, r4
	bl	set_cmd_with_nand_bus
	ldr	r3, [r5]
	cmp	r3, #1
	beq	.L24
	mov	r0, r4
	bl	nand_disable_chip
	add	sp, sp, #20
	@ sp needed
	pop	{r4, r5, pc}
.L22:
	ldr	r0, [r4, #248]
	movw	r5, #:lower16:.LANCHOR0
	bl	ndfc_set_legacy_interface
	movt	r5, #:upper16:.LANCHOR0
	mov	r3, #1
	str	r3, [r5]
	b	.L18
.L24:
	ldr	r0, [r4, #248]
	bl	ndfc_set_toogle_interface
	mov	r0, r4
	bl	nand_disable_chip
	add	sp, sp, #20
	@ sp needed
	pop	{r4, r5, pc}
	.size	m7_end_one_read_retry.part.1, .-m7_end_one_read_retry.part.1
	.align	2
	.syntax unified
	.arm
	.type	print_free_list.part.6, %function
print_free_list.part.6:
	@ args = 0, pretend = 0, frame = 0
	@ frame_needed = 0, uses_anonymous_args = 0
	push	{r4, r5, r6, r7, r8, lr}
	mov	r4, r0
	movw	r0, #:lower16:.LC5
	movt	r0, #:upper16:.LC5
	bl	NAND_Print
	ldr	r4, [r4, #172]
	cmp	r4, #0
	popeq	{r4, r5, r6, r7, r8, pc}
	movw	r7, #:lower16:.LC6
	movw	r6, #:lower16:.LC7
	movw	r5, #:lower16:.LC8
	movt	r7, #:upper16:.LC6
	movt	r6, #:upper16:.LC7
	movt	r5, #:upper16:.LC8
.L27:
	ldrh	r2, [r4, #6]
	mov	r0, r7
	ldrh	r1, [r4]
	bl	NAND_Print
	ldr	r1, [r4, #8]
	mov	r0, r6
	bl	NAND_Print
	ldrh	r1, [r4, #2]
	mov	r0, r5
	bl	NAND_Print
	ldr	r4, [r4, #20]
	cmp	r4, #0
	bne	.L27
	pop	{r4, r5, r6, r7, r8, pc}
	.size	print_free_list.part.6, .-print_free_list.part.6
	.align	2
	.syntax unified
	.arm
	.type	print_block_invalid_list.part.7, %function
print_block_invalid_list.part.7:
	@ args = 0, pretend = 0, frame = 0
	@ frame_needed = 0, uses_anonymous_args = 0
	push	{r4, r5, r6, r7, r8, lr}
	mov	r4, r0
	movw	r0, #:lower16:.LC9
	movt	r0, #:upper16:.LC9
	bl	NAND_Print
	ldr	r4, [r4, #200]
	cmp	r4, #0
	popeq	{r4, r5, r6, r7, r8, pc}
	movw	r7, #:lower16:.LC6
	movw	r6, #:lower16:.LC10
	movw	r5, #:lower16:.LC8
	movt	r7, #:upper16:.LC6
	movt	r6, #:upper16:.LC10
	movt	r5, #:upper16:.LC8
.L33:
	ldrh	r2, [r4, #6]
	mov	r0, r7
	ldrh	r1, [r4]
	bl	NAND_Print
	ldrh	r2, [r4, #4]
	mov	r0, r6
	ldr	r1, [r4, #8]
	bl	NAND_Print
	ldrh	r1, [r4, #2]
	mov	r0, r5
	bl	NAND_Print
	ldr	r4, [r4, #12]
	cmp	r4, #0
	bne	.L33
	pop	{r4, r5, r6, r7, r8, pc}
	.size	print_block_invalid_list.part.7, .-print_block_invalid_list.part.7
	.align	2
	.syntax unified
	.arm
	.type	check_static_wear_leveling.part.9, %function
check_static_wear_leveling.part.9:
	@ args = 0, pretend = 0, frame = 0
	@ frame_needed = 0, uses_anonymous_args = 0
	ldr	ip, [r0, #200]
	cmp	ip, #0
	beq	.L64
	ldr	r3, [r0, #172]
	cmp	r3, #0
	beq	.L64
	ldr	r2, [r0, #292]
	push	{r4, r5, r6, r7, r8, r9, r10, lr}
	ldrh	r9, [r0, #18]
	ldr	r8, [r2, #8]
	cmp	r8, r9
	blt	.L40
	ldr	r2, [r0, #4]
	mov	lr, #0
	mov	r1, lr
	ldrh	r5, [r2, #16]
.L42:
	ldrh	r2, [r3, #6]
	cmp	r2, r1
	cmpcs	r5, r2
	movhi	r4, #1
	movls	r4, #0
	cmp	r4, #0
	movne	lr, r3
	ldr	r3, [r3, #20]
	movne	r1, r2
	cmp	r3, #0
	bne	.L42
	cmp	lr, #0
	beq	.L40
	movw	r6, #52429
	ldrh	r1, [lr, #6]
	movt	r6, 52428
	umull	r6, r7, r5, r6
	ubfx	r6, r7, #2, #16
	cmp	r1, r6
	bcc	.L40
	sub	r8, r8, r9
	mov	r4, r3
	mov	lr, r5
.L45:
	ldrh	r3, [ip, #6]
	cmp	r5, r3
	bls	.L44
	ldr	r2, [ip, #8]
	cmp	r8, r2
	movhi	r2, #1
	movls	r2, #0
	cmp	r3, lr
	movhi	r2, #0
	cmp	r2, #0
	movne	lr, r3
	movne	r4, ip
.L44:
	ldr	ip, [ip, #12]
	cmp	ip, #0
	bne	.L45
	cmp	r4, #0
	beq	.L40
	ldrh	r2, [r4, #6]
	cmp	r1, r2
	bls	.L40
	lsl	r3, r1, #1
	add	ip, r3, r1
	cmp	ip, r5, lsl #1
	ble	.L47
	movw	r6, #43691
	movw	r3, #574
	movt	r6, 43690
	umull	r6, r7, r5, r6
	ubfx	r6, r7, #3, #16
	strh	r6, [r0, r3]	@ movhi
.L48:
	sub	r3, r1, r2
	cmp	r3, r6
	blt	.L40
	mov	r5, r0
	movw	r0, #:lower16:.LC11
	movt	r0, #:upper16:.LC11
	bl	NAND_Print
	movw	r0, #:lower16:.LC12
	ldrh	r1, [r4]
	movt	r0, #:upper16:.LC12
	bl	NAND_Print
	movw	r0, #:lower16:.LC13
	ldrh	r1, [r5, #18]
	movt	r0, #:upper16:.LC13
	bl	NAND_Print
	str	r4, [r5, #580]
	mov	r0, #0
	pop	{r4, r5, r6, r7, r8, r9, r10, pc}
.L40:
	mov	r0, #1
	pop	{r4, r5, r6, r7, r8, r9, r10, pc}
.L64:
	mov	r0, #1
	bx	lr
.L47:
	cmp	r5, r3
	bge	.L49
	movw	r6, #52429
	movw	r3, #574
	movt	r6, 52428
	umull	r6, r7, r5, r6
	ubfx	r6, r7, #3, #16
	strh	r6, [r0, r3]	@ movhi
	b	.L48
.L49:
	cmp	r5, ip
	movwlt	r6, #18725
	movwlt	r3, #574
	movtlt	r6, 9362
	movwge	r3, #574
	umulllt	r6, r7, r5, r6
	sublt	r6, r5, r7
	addlt	r6, r7, r6, lsr #1
	ubfxlt	r6, r6, #2, #16
	strh	r6, [r0, r3]	@ movhi
	b	.L48
	.size	check_static_wear_leveling.part.9, .-check_static_wear_leveling.part.9
	.align	2
	.syntax unified
	.arm
	.type	get_empty_cahce_node.part.11, %function
get_empty_cahce_node.part.11:
	@ args = 0, pretend = 0, frame = 0
	@ frame_needed = 0, uses_anonymous_args = 0
	ldrh	r1, [r0, #6]
	str	lr, [sp, #-4]!
	ldr	r3, [r0, #984]
	cmp	r1, #9
	bls	.L97
	cmp	r3, #0
	bne	.L72
.L79:
	mov	r2, r3
	mov	r0, r2
	ldr	pc, [sp], #4
.L77:
	ldrh	r2, [r3, #2]
	cmp	r2, #0
	beq	.L98
	ldr	r3, [r3, #16]
.L97:
	cmp	r3, #0
	bne	.L77
	b	.L79
.L70:
	ldr	r3, [r3, #16]
	cmp	r3, #0
	beq	.L79
.L72:
	ldrh	r2, [r3, #2]
	cmp	r2, #2
	bne	.L70
	ldr	ip, [r3, #20]
	sub	r1, r1, #1
	ldr	r2, [r3, #16]
	mov	lr, #255
	str	r2, [ip, #16]
	ldr	r2, [r3, #16]
	cmp	r2, #0
	strne	ip, [r2, #20]
	mov	ip, #0
	mov	r2, r3
	strh	r1, [r0, #6]	@ movhi
	strh	lr, [r3, #2]	@ movhi
	mov	r0, r2
	str	ip, [r3, #16]
	str	ip, [r3, #20]
	ldr	pc, [sp], #4
.L98:
	ldr	r1, [r3, #20]
	mov	ip, #0
	ldr	r2, [r3, #16]
	mov	lr, #255
	str	r2, [r1, #16]
	ldr	r2, [r3, #16]
	cmp	r2, #0
	strne	r1, [r2, #20]
	mov	r2, r3
	ldrh	r1, [r0, #2]
	sub	r1, r1, #1
	strh	r1, [r0, #2]	@ movhi
	mov	r0, r2
	strh	lr, [r3, #2]	@ movhi
	str	ip, [r3, #16]
	str	ip, [r3, #20]
	ldr	pc, [sp], #4
	.size	get_empty_cahce_node.part.11, .-get_empty_cahce_node.part.11
	.align	2
	.global	nand_cache_read
	.syntax unified
	.arm
	.type	nand_cache_read, %function
nand_cache_read:
	@ args = 0, pretend = 0, frame = 8
	@ frame_needed = 0, uses_anonymous_args = 0
	push	{r4, r5, r6, r7, r8, r9, r10, fp, lr}
	subs	r8, r3, #0
	sub	sp, sp, #12
	beq	.L150
	ldr	r3, [r0, #1972]
	lsr	r7, r2, #8
	uxtb	r2, r2
	mov	r5, r0
	mov	r4, r1
	lsl	r7, r7, #9
	ldrh	r3, [r3]
	lsl	r6, r2, #9
	cmp	r3, #0
	bne	.L151
	ldr	r9, [r0, #1608]
	cmp	r9, #0
	bne	.L107
	b	.L103
.L152:
	ldr	r9, [r9, #24]
	cmp	r9, #0
	beq	.L103
.L107:
	ldr	r3, [r9, #8]
	cmp	r4, r3
	bne	.L152
	ldrh	fp, [r9, #6]
	ldrh	r3, [r9, #4]
	ldr	r10, [r9, #12]
	lsl	fp, fp, #9
	lsl	r3, r3, #9
	uxth	fp, fp
	uxth	r3, r3
	add	r3, r3, fp
	cmp	r7, r3
	bhi	.L108
	add	r2, r7, r6
	cmp	r3, r2
	bcs	.L153
.L108:
	mov	r1, r4
	ldr	r3, [r5, #2004]
	ldr	r2, [r5, #1616]
	mov	r0, r5
	blx	r3
	ldr	r3, [r5, #4]
	add	r0, r10, fp
	ldr	r1, [r5, #1616]
	ldrh	r2, [r3, #26]
	add	r1, r1, fp
	sub	r2, r2, fp
	bl	NAND_Memcpy
	ldr	r3, [r5, #4]
	mov	r0, r8
	mov	r2, r6
	add	r1, r10, r7
	ldrb	r3, [r3, #8]	@ zero_extendqisi2
	strh	r3, [r9, #6]	@ movhi
	bl	NAND_Memcpy
	mov	r0, #0
.L144:
	add	sp, sp, #12
	@ sp needed
	pop	{r4, r5, r6, r7, r8, r9, r10, fp, pc}
.L103:
	ldr	fp, [r5, #1568]
	cmp	fp, #0
	bne	.L111
	b	.L121
.L154:
	ldr	fp, [fp, #16]
	cmp	fp, #0
	beq	.L121
.L111:
	ldr	r3, [fp, #8]
	cmp	r4, r3
	bne	.L154
	ldrh	r3, [fp, #2]
	cmp	r3, #0
	bne	.L155
	ldr	r2, [fp, #20]
	add	r9, r5, #584
	ldr	r3, [fp, #16]
	mov	ip, #255
	ldr	r1, [fp, #12]
	mov	r0, r8
	add	r5, r5, #1552
	str	r3, [r2, #16]
	ldr	r3, [fp, #16]
	add	r1, r1, r7
	cmp	r3, #0
	strne	r2, [r3, #20]
	mov	r2, r6
	ldrh	r3, [r9, #2]
	sub	r3, r3, #1
	strh	r3, [r9, #2]	@ movhi
	mov	r3, #0
	strh	ip, [fp, #2]	@ movhi
	str	r3, [fp, #16]
	str	r3, [fp, #20]
	bl	NAND_Memcpy
	b	.L116
.L128:
	mov	r5, r3
.L116:
	ldr	r3, [r5, #16]
	cmp	r3, #0
	bne	.L128
	ldrh	r2, [r9, #2]
	mov	r0, r3
	str	fp, [r5, #16]
	str	r3, [fp, #16]
	add	r2, r2, #1
	str	r5, [fp, #20]
	strh	r3, [fp, #2]	@ movhi
	strh	r2, [r9, #2]	@ movhi
	b	.L144
.L151:
	ldr	r9, [r0, #604]
	ldr	r3, [r0, #2004]
	mov	r2, r9
	blx	r3
	mov	r2, r6
	mov	r10, r0
	add	r1, r9, r7
	mov	r0, r8
	bl	NAND_Memcpy
	cmp	r10, #10
	movne	r0, r10
	bne	.L144
	ldr	ip, [r5, #1968]
	mov	r1, r4
	mov	r2, r9
	ldr	r4, [r5, #2000]
	mov	r0, r5
	ldr	r3, [ip, #120]
	add	r3, r3, #1
	str	r3, [ip, #120]
	blx	r4
	mov	r0, #0
	b	.L144
.L153:
	mov	r0, r8
	mov	r2, r6
	add	r1, r10, r7
	bl	NAND_Memcpy
	mov	r0, #0
	add	sp, sp, #12
	@ sp needed
	pop	{r4, r5, r6, r7, r8, r9, r10, fp, pc}
.L121:
	add	r9, r5, #584
	ldrh	r3, [r9]
	cmp	r3, #0
	beq	.L112
	ldrh	r2, [r9, #10]
	cmp	r2, #255
	beq	.L156
	sub	r2, r3, #1
	add	r1, r5, #624
	uxth	r2, r2
	mov	r3, #1
	add	r1, r1, #2
	add	r2, r2, r3
.L117:
	cmp	r2, r3
	mov	ip, r3
	add	r3, r3, #1
	beq	.L112
	ldrh	r0, [r1], #32
	cmp	r0, #255
	bne	.L117
.L113:
	add	ip, r9, ip, lsl #5
	add	fp, ip, #8
.L118:
	ldr	r3, [fp, #12]
	mov	r1, r4
	str	r4, [fp, #8]
	mov	r0, r5
	ldr	r10, [r5, #2004]
	mov	r2, r3
	str	r3, [sp]
	blx	r10
	ldr	r2, [r5, #4]
	mov	r1, #0
	strh	r1, [fp, #4]	@ movhi
	mov	r3, r0
	add	ip, r5, #1552
	ldrb	r2, [r2, #8]	@ zero_extendqisi2
	strh	r2, [fp, #6]	@ movhi
	b	.L120
.L129:
	mov	ip, r10
.L120:
	ldr	r10, [ip, #16]
	cmp	r10, #0
	bne	.L129
	ldrh	lr, [r9, #2]
	mov	r0, r8
	str	r3, [sp, #4]
	mov	r2, r6
	ldr	r3, [sp]
	add	lr, lr, #1
	str	fp, [ip, #16]
	str	r10, [fp, #16]
	add	r1, r3, r7
	str	ip, [fp, #20]
	strh	r10, [fp, #2]	@ movhi
	strh	lr, [r9, #2]	@ movhi
	bl	NAND_Memcpy
	ldr	r3, [sp, #4]
	cmp	r3, #10
	movne	r0, r3
	bne	.L144
	ldr	ip, [r5, #1968]
	mov	r1, r4
	ldr	r2, [sp]
	mov	r0, r5
	ldr	r4, [r5, #2000]
	ldr	r3, [ip, #120]
	add	r3, r3, #1
	str	r3, [ip, #120]
	blx	r4
	mov	r0, r10
	b	.L144
.L156:
	mov	ip, #0
	b	.L113
.L150:
	movw	r0, #:lower16:.LC14
	movt	r0, #:upper16:.LC14
	bl	NAND_Print
	mov	r0, r8
	b	.L144
.L155:
	ldr	r1, [fp, #12]
	mov	r0, r8
	mov	r2, r6
	add	r1, r1, r7
	bl	NAND_Memcpy
	mov	r0, #0
	b	.L144
.L112:
	mov	r0, r9
	bl	get_empty_cahce_node.part.11
	subs	fp, r0, #0
	bne	.L118
	movw	r0, #:lower16:.LC15
	ldrh	r3, [r9, #6]
	movt	r0, #:upper16:.LC15
	ldrh	r2, [r9, #2]
	ldrh	r1, [r9, #4]
	bl	NAND_Print
	mov	r0, #1
	b	.L144
	.size	nand_cache_read, .-nand_cache_read
	.align	2
	.global	_nftl_nand_read_page
	.syntax unified
	.arm
	.type	_nftl_nand_read_page, %function
_nftl_nand_read_page:
	@ args = 0, pretend = 0, frame = 16
	@ frame_needed = 0, uses_anonymous_args = 0
	push	{r4, r5, r6, r7, r8, lr}
	mov	r6, r0
	ldr	r0, [r0, #1968]
	mov	r3, r1
	sub	sp, sp, #16
	ldrh	ip, [r3, #2]
	mov	r1, sp
	ldr	r2, [r6]
	ldrd	r4, [r0, #88]
	ldrh	r7, [r3]
	ldr	r2, [r2, #4]
	ldrh	r8, [r3, #4]
	adds	r4, r4, #1
	ldr	lr, [r3, #8]
	adc	r5, r5, #0
	strh	ip, [sp, #2]	@ movhi
	ldr	ip, [r3, #12]
	strd	r4, [r0, #88]
	mov	r0, r2
	ldr	r3, [r2, #88]
	strh	r7, [sp]	@ movhi
	strh	r8, [sp, #4]	@ movhi
	str	lr, [sp, #8]
	str	ip, [sp, #12]
	blx	r3
	cmn	r0, #2
	ldreq	r2, [r6, #1968]
	ldreq	r3, [r2, #136]
	addeq	r3, r3, #1
	streq	r3, [r2, #136]
	add	sp, sp, #16
	@ sp needed
	pop	{r4, r5, r6, r7, r8, pc}
	.size	_nftl_nand_read_page, .-_nftl_nand_read_page
	.align	2
	.global	_nftl_nand_write_page
	.syntax unified
	.arm
	.type	_nftl_nand_write_page, %function
_nftl_nand_write_page:
	@ args = 0, pretend = 0, frame = 16
	@ frame_needed = 0, uses_anonymous_args = 0
	push	{r4, r5, r6, r7, r8, lr}
	mov	r6, r0
	ldr	r0, [r0, #1968]
	mov	r3, r1
	sub	sp, sp, #16
	ldrh	ip, [r3, #2]
	mov	r1, sp
	ldr	r2, [r6]
	ldrd	r4, [r0, #96]
	ldrh	r7, [r3]
	ldr	r2, [r2, #4]
	ldrh	r8, [r3, #4]
	adds	r4, r4, #1
	ldr	lr, [r3, #8]
	adc	r5, r5, #0
	strh	ip, [sp, #2]	@ movhi
	ldr	ip, [r3, #12]
	strd	r4, [r0, #96]
	mov	r0, r2
	ldr	r3, [r2, #92]
	strh	r7, [sp]	@ movhi
	strh	r8, [sp, #4]	@ movhi
	str	lr, [sp, #8]
	str	ip, [sp, #12]
	blx	r3
	cmp	r0, #0
	ldrne	r2, [r6, #1968]
	ldrne	r3, [r2, #140]
	addne	r3, r3, #1
	strne	r3, [r2, #140]
	add	sp, sp, #16
	@ sp needed
	pop	{r4, r5, r6, r7, r8, pc}
	.size	_nftl_nand_write_page, .-_nftl_nand_write_page
	.align	2
	.syntax unified
	.arm
	.type	print_smart.part.16, %function
print_smart.part.16:
	@ args = 0, pretend = 0, frame = 0
	@ frame_needed = 0, uses_anonymous_args = 0
	push	{r4, lr}
	ldr	r4, [r0, #1968]
	movw	r0, #:lower16:.LC16
	movt	r0, #:upper16:.LC16
	ldr	r1, [r4, #64]
	bl	NAND_Print_DBG
	movw	r0, #:lower16:.LC17
	ldrd	r2, [r4, #72]
	movt	r0, #:upper16:.LC17
	bl	NAND_Print_DBG
	movw	r0, #:lower16:.LC18
	ldrd	r2, [r4, #80]
	movt	r0, #:upper16:.LC18
	bl	NAND_Print_DBG
	movw	r0, #:lower16:.LC19
	ldrd	r2, [r4, #88]
	movt	r0, #:upper16:.LC19
	bl	NAND_Print_DBG
	movw	r0, #:lower16:.LC20
	ldrd	r2, [r4, #96]
	movt	r0, #:upper16:.LC20
	bl	NAND_Print_DBG
	movw	r0, #:lower16:.LC21
	ldrd	r2, [r4, #104]
	movt	r0, #:upper16:.LC21
	bl	NAND_Print_DBG
	movw	r0, #:lower16:.LC22
	ldrd	r2, [r4, #112]
	movt	r0, #:upper16:.LC22
	bl	NAND_Print_DBG
	movw	r0, #:lower16:.LC23
	ldr	r1, [r4, #120]
	movt	r0, #:upper16:.LC23
	bl	NAND_Print_DBG
	movw	r0, #:lower16:.LC24
	ldr	r1, [r4, #124]
	movt	r0, #:upper16:.LC24
	bl	NAND_Print_DBG
	movw	r0, #:lower16:.LC25
	ldr	r1, [r4, #128]
	movt	r0, #:upper16:.LC25
	bl	NAND_Print_DBG
	movw	r0, #:lower16:.LC26
	ldr	r1, [r4, #132]
	movt	r0, #:upper16:.LC26
	bl	NAND_Print_DBG
	movw	r0, #:lower16:.LC27
	ldr	r1, [r4, #184]
	movt	r0, #:upper16:.LC27
	bl	NAND_Print_DBG
	movw	r0, #:lower16:.LC28
	ldr	r1, [r4, #136]
	movt	r0, #:upper16:.LC28
	bl	NAND_Print_DBG
	movw	r0, #:lower16:.LC29
	ldr	r1, [r4, #140]
	movt	r0, #:upper16:.LC29
	bl	NAND_Print_DBG
	movw	r0, #:lower16:.LC30
	ldr	r1, [r4, #144]
	movt	r0, #:upper16:.LC30
	bl	NAND_Print_DBG
	movw	r0, #:lower16:.LC31
	ldr	r1, [r4, #148]
	movt	r0, #:upper16:.LC31
	bl	NAND_Print_DBG
	movw	r0, #:lower16:.LC32
	ldr	r1, [r4, #152]
	movt	r0, #:upper16:.LC32
	bl	NAND_Print_DBG
	movw	r0, #:lower16:.LC33
	ldr	r1, [r4, #156]
	movt	r0, #:upper16:.LC33
	bl	NAND_Print_DBG
	movw	r0, #:lower16:.LC34
	ldr	r1, [r4, #160]
	movt	r0, #:upper16:.LC34
	bl	NAND_Print_DBG
	movw	r0, #:lower16:.LC35
	ldr	r1, [r4, #164]
	movt	r0, #:upper16:.LC35
	bl	NAND_Print_DBG
	movw	r0, #:lower16:.LC36
	ldr	r1, [r4, #168]
	movt	r0, #:upper16:.LC36
	bl	NAND_Print_DBG
	movw	r0, #:lower16:.LC37
	ldr	r1, [r4, #172]
	movt	r0, #:upper16:.LC37
	bl	NAND_Print_DBG
	movw	r0, #:lower16:.LC38
	ldr	r1, [r4, #176]
	movt	r0, #:upper16:.LC38
	bl	NAND_Print_DBG
	movw	r0, #:lower16:.LC39
	ldr	r1, [r4, #180]
	movt	r0, #:upper16:.LC39
	pop	{r4, lr}
	b	NAND_Print_DBG
	.size	print_smart.part.16, .-print_smart.part.16
	.align	2
	.syntax unified
	.arm
	.type	print_nftl_zone.part.17, %function
print_nftl_zone.part.17:
	@ args = 0, pretend = 0, frame = 0
	@ frame_needed = 0, uses_anonymous_args = 0
	push	{r4, lr}
	mov	r4, r0
	movw	r0, #:lower16:.LC40
	sub	sp, sp, #16
	movt	r0, #:upper16:.LC40
	bl	NAND_Print_DBG
	ldr	r3, [r4, #4]
	movw	r0, #:lower16:.LC41
	movt	r0, #:upper16:.LC41
	ldrh	r1, [r3, #24]
	bl	NAND_Print_DBG
	ldr	r3, [r4, #4]
	movw	r0, #:lower16:.LC42
	movt	r0, #:upper16:.LC42
	ldrh	r1, [r3, #26]
	bl	NAND_Print_DBG
	ldr	r3, [r4, #4]
	movw	r0, #:lower16:.LC43
	movt	r0, #:upper16:.LC43
	ldrh	r1, [r3, #20]
	bl	NAND_Print_DBG
	ldr	r3, [r4, #4]
	movw	r0, #:lower16:.LC44
	movt	r0, #:upper16:.LC44
	ldrh	r1, [r3, #16]
	bl	NAND_Print_DBG
	ldr	r3, [r4, #4]
	movw	r0, #:lower16:.LC45
	movt	r0, #:upper16:.LC45
	ldrh	r1, [r3, #30]
	bl	NAND_Print_DBG
	movw	r0, #:lower16:.LC46
	ldr	r1, [r4, #356]
	movt	r0, #:upper16:.LC46
	bl	NAND_Print_DBG
	movw	r0, #:lower16:.LC47
	ldrb	r1, [r4, #16]	@ zero_extendqisi2
	movt	r0, #:upper16:.LC47
	bl	NAND_Print_DBG
	movw	r0, #:lower16:.LC48
	ldrb	r1, [r4, #17]	@ zero_extendqisi2
	movt	r0, #:upper16:.LC48
	bl	NAND_Print_DBG
	movw	r0, #:lower16:.LC49
	ldrh	r1, [r4, #18]
	movt	r0, #:upper16:.LC49
	bl	NAND_Print_DBG
	movw	r0, #:lower16:.LC50
	ldrh	r1, [r4, #20]
	movt	r0, #:upper16:.LC50
	bl	NAND_Print_DBG
	movw	r0, #:lower16:.LC51
	ldr	r1, [r4, #24]
	movt	r0, #:upper16:.LC51
	bl	NAND_Print_DBG
	movw	r0, #:lower16:.LC52
	ldr	r1, [r4, #32]
	movt	r0, #:upper16:.LC52
	bl	NAND_Print_DBG
	movw	r0, #:lower16:.LC53
	ldrh	r1, [r4, #22]
	movt	r0, #:upper16:.LC53
	bl	NAND_Print_DBG
	add	r3, r4, #380
	movw	r0, #:lower16:.LC54
	ldrh	r1, [r3]
	movt	r0, #:upper16:.LC54
	bl	NAND_Print_DBG
	movw	r3, #382
	movw	r0, #:lower16:.LC55
	ldrh	r1, [r4, r3]
	movt	r0, #:upper16:.LC55
	bl	NAND_Print_DBG
	add	r3, r4, #388
	movw	r0, #:lower16:.LC56
	ldrh	r1, [r3]
	movt	r0, #:upper16:.LC56
	bl	NAND_Print_DBG
	add	r3, r4, #384
	movw	r0, #:lower16:.LC57
	ldrh	r1, [r3]
	movt	r0, #:upper16:.LC57
	bl	NAND_Print_DBG
	movw	r3, #394
	movw	r0, #:lower16:.LC58
	ldrh	r1, [r4, r3]
	movt	r0, #:upper16:.LC58
	bl	NAND_Print_DBG
	ldr	r3, [r4, #40]
	movw	r0, #:lower16:.LC59
	movt	r0, #:upper16:.LC59
	ldrh	r1, [r3]
	bl	NAND_Print_DBG
	ldr	r3, [r4, #44]
	movw	r0, #:lower16:.LC60
	movt	r0, #:upper16:.LC60
	ldrh	r1, [r3]
	bl	NAND_Print_DBG
	add	r2, r4, #272
	add	r3, r4, #260
	ldm	r2, {r0, r1, r2}
	stm	sp, {r0, r1, r2}
	movw	r0, #:lower16:.LC61
	movt	r0, #:upper16:.LC61
	ldm	r3, {r1, r2, r3}
	bl	NAND_Print_DBG
	add	r2, r4, #308
	add	r3, r4, #296
	ldm	r2, {r0, r1, r2}
	stm	sp, {r0, r1, r2}
	movw	r0, #:lower16:.LC62
	movt	r0, #:upper16:.LC62
	ldm	r3, {r1, r2, r3}
	bl	NAND_Print_DBG
	movw	r0, #:lower16:.LC63
	ldr	r1, [r4, #292]
	movt	r0, #:upper16:.LC63
	bl	NAND_Print_DBG
	ldr	r3, [r4, #292]
	movw	r0, #:lower16:.LC64
	movt	r0, #:upper16:.LC64
	ldrh	r1, [r3]
	bl	NAND_Print_DBG
	add	r3, r4, #320
	movw	r0, #:lower16:.LC65
	ldrh	r1, [r3]
	movt	r0, #:upper16:.LC65
	bl	NAND_Print_DBG
	ldr	r3, [r4, #292]
	movw	r0, #:lower16:.LC66
	movt	r0, #:upper16:.LC66
	ldr	r1, [r3, #8]
	bl	NAND_Print_DBG
	ldr	r3, [r4, #48]
	movw	r0, #:lower16:.LC67
	movt	r0, #:upper16:.LC67
	ldrh	r2, [r3, #6]
	ldrh	r1, [r3]
	bl	NAND_Print_DBG
	ldrb	r3, [r4, #17]	@ zero_extendqisi2
	tst	r3, #1
	bne	.L175
.L169:
	movw	r0, #:lower16:.LC73
	ldr	r1, [r4, #360]
	movt	r0, #:upper16:.LC73
	bl	NAND_Print_DBG
	movw	r0, #:lower16:.LC74
	ldr	r1, [r4, #284]
	movt	r0, #:upper16:.LC74
	bl	NAND_Print_DBG
	movw	r0, #:lower16:.LC75
	ldr	r1, [r4, #376]
	movt	r0, #:upper16:.LC75
	bl	NAND_Print_DBG
	add	r3, r4, #584
	movw	r0, #:lower16:.LC76
	ldrh	r1, [r3]
	movt	r0, #:upper16:.LC76
	bl	NAND_Print_DBG
	movw	r0, #:lower16:.LC77
	ldr	r1, [r4, #368]
	movt	r0, #:upper16:.LC77
	bl	NAND_Print_DBG
	movw	r0, #:lower16:.LC78
	ldr	r1, [r4, #372]
	movt	r0, #:upper16:.LC78
	bl	NAND_Print_DBG
	ldr	r3, [r4, #1972]
	movw	r0, #:lower16:.LC79
	movt	r0, #:upper16:.LC79
	ldrh	r1, [r3]
	bl	NAND_Print_DBG
	ldr	r3, [r4, #1972]
	movw	r0, #:lower16:.LC80
	movt	r0, #:upper16:.LC80
	ldrh	r1, [r3, #2]
	bl	NAND_Print_DBG
	ldr	r3, [r4, #1972]
	movw	r0, #:lower16:.LC81
	movt	r0, #:upper16:.LC81
	ldrh	r1, [r3, #4]
	bl	NAND_Print_DBG
	ldr	r3, [r4, #1972]
	movw	r0, #:lower16:.LC82
	movt	r0, #:upper16:.LC82
	ldrh	r1, [r3, #6]
	bl	NAND_Print_DBG
	ldr	r3, [r4, #1972]
	movw	r0, #:lower16:.LC83
	movt	r0, #:upper16:.LC83
	ldrh	r1, [r3, #10]
	bl	NAND_Print_DBG
	ldr	r3, [r4, #1972]
	movw	r0, #:lower16:.LC84
	movt	r0, #:upper16:.LC84
	ldrh	r1, [r3, #12]
	bl	NAND_Print_DBG
	ldr	r3, [r4, #1972]
	movw	r0, #:lower16:.LC85
	movt	r0, #:upper16:.LC85
	ldrh	r1, [r3, #14]
	bl	NAND_Print_DBG
	ldr	r3, [r4, #1972]
	movw	r0, #:lower16:.LC86
	movt	r0, #:upper16:.LC86
	ldrh	r1, [r3, #16]
	bl	NAND_Print_DBG
	ldr	r3, [r4, #1972]
	movw	r0, #:lower16:.LC87
	movt	r0, #:upper16:.LC87
	ldrh	r1, [r3, #18]
	bl	NAND_Print_DBG
	ldr	r3, [r4, #1972]
	movw	r0, #:lower16:.LC88
	movt	r0, #:upper16:.LC88
	ldrh	r1, [r3, #20]
	bl	NAND_Print_DBG
	ldr	r3, [r4, #1972]
	movw	r0, #:lower16:.LC89
	movt	r0, #:upper16:.LC89
	ldrh	r1, [r3, #22]
	bl	NAND_Print_DBG
	ldr	r3, [r4, #1972]
	movw	r0, #:lower16:.LC90
	movt	r0, #:upper16:.LC90
	ldrh	r1, [r3, #24]
	bl	NAND_Print_DBG
	ldr	r3, [r4, #1972]
	movw	r0, #:lower16:.LC91
	movt	r0, #:upper16:.LC91
	ldrh	r1, [r3, #26]
	bl	NAND_Print_DBG
	ldr	r3, [r4, #1972]
	movw	r0, #:lower16:.LC92
	movt	r0, #:upper16:.LC92
	ldr	r1, [r3, #28]
	bl	NAND_Print_DBG
	ldr	r3, [r4, #356]
	cmp	r3, #0
	bne	.L176
	add	sp, sp, #16
	@ sp needed
	pop	{r4, pc}
.L176:
	mov	r0, r4
	add	sp, sp, #16
	@ sp needed
	pop	{r4, lr}
	b	print_smart.part.16
.L175:
	add	r2, r4, #340
	add	r3, r4, #328
	ldm	r2, {r0, r1, r2}
	stm	sp, {r0, r1, r2}
	movw	r0, #:lower16:.LC68
	movt	r0, #:upper16:.LC68
	ldm	r3, {r1, r2, r3}
	bl	NAND_Print_DBG
	movw	r0, #:lower16:.LC69
	ldr	r1, [r4, #324]
	movt	r0, #:upper16:.LC69
	bl	NAND_Print_DBG
	ldr	r3, [r4, #324]
	movw	r0, #:lower16:.LC70
	movt	r0, #:upper16:.LC70
	ldrh	r1, [r3]
	bl	NAND_Print_DBG
	add	r3, r4, #352
	movw	r0, #:lower16:.LC71
	ldrh	r1, [r3]
	movt	r0, #:upper16:.LC71
	bl	NAND_Print_DBG
	ldr	r3, [r4, #324]
	movw	r0, #:lower16:.LC72
	movt	r0, #:upper16:.LC72
	ldr	r1, [r3, #8]
	bl	NAND_Print_DBG
	b	.L169
	.size	print_nftl_zone.part.17, .-print_nftl_zone.part.17
	.align	2
	.syntax unified
	.arm
	.type	crc_wrong.isra.18, %function
crc_wrong.isra.18:
	@ args = 0, pretend = 0, frame = 0
	@ frame_needed = 0, uses_anonymous_args = 0
	push	{r4, r5, r6, lr}
	sub	ip, r3, #1
	add	r4, r3, #9
	mov	r5, #0
.L179:
	ldrb	lr, [ip, #1]!	@ zero_extendqisi2
	cmp	lr, #255
	addeq	r5, r5, #1
	cmp	ip, r4
	bne	.L179
	cmp	r5, #8
	bls	.L180
	ldrb	ip, [r3]	@ zero_extendqisi2
	cmp	ip, #255
	beq	.L189
.L180:
	mov	ip, r3
	add	r5, r3, #4
	mov	lr, #0
.L182:
	ldrb	r4, [ip, #1]!	@ zero_extendqisi2
	cmp	ip, r5
	orr	lr, r4, lr, lsl #8
	bne	.L182
	movw	ip, #65535
	ldrb	r4, [r0, #8]	@ zero_extendqisi2
	movt	ip, 43690
	cmp	lr, ip
	beq	.L183
	lsl	r4, r4, #9
.L186:
	cmp	r4, #0
	beq	.L188
	movw	ip, #:lower16:.LANCHOR2
	add	lr, r2, r4
	movt	ip, #:upper16:.LANCHOR2
	movw	r1, #65535
.L185:
	ldrb	r0, [r2], #1	@ zero_extendqisi2
	eor	r0, r0, r1
	cmp	r2, lr
	uxtb	r0, r0
	lsl	r0, r0, #1
	ldrh	r0, [ip, r0]
	eor	r1, r0, r1, lsr #8
	bne	.L185
.L184:
	ldrb	r0, [r3, #12]	@ zero_extendqisi2
	ldrb	r2, [r3, #13]	@ zero_extendqisi2
	orr	r2, r2, r0, lsl #8
	cmp	r1, r2
	beq	.L189
	movw	r0, #:lower16:.LC93
	mov	r3, r4
	movt	r0, #:upper16:.LC93
	bl	NAND_Print
	mov	r0, #1
	pop	{r4, r5, r6, pc}
.L183:
	ldr	r4, [r1]
	b	.L186
.L189:
	mov	r0, #0
	pop	{r4, r5, r6, pc}
.L188:
	movw	r1, #65535
	b	.L184
	.size	crc_wrong.isra.18, .-crc_wrong.isra.18
	.align	2
	.global	_nand_sector_read
	.syntax unified
	.arm
	.type	_nand_sector_read, %function
_nand_sector_read:
	@ args = 0, pretend = 0, frame = 0
	@ frame_needed = 0, uses_anonymous_args = 0
	@ link register save eliminated.
	mov	r0, #0
	bx	lr
	.size	_nand_sector_read, .-_nand_sector_read
	.align	2
	.global	_shutdown_op
	.syntax unified
	.arm
	.type	_shutdown_op, %function
_shutdown_op:
	@ args = 0, pretend = 0, frame = 0
	@ frame_needed = 0, uses_anonymous_args = 0
	@ link register save eliminated.
	mov	r0, #0
	bx	lr
	.size	_shutdown_op, .-_shutdown_op
	.align	2
	.global	print_all_nftl_blk
	.syntax unified
	.arm
	.type	print_all_nftl_blk, %function
print_all_nftl_blk:
	@ args = 0, pretend = 0, frame = 0
	@ frame_needed = 0, uses_anonymous_args = 0
	push	{r4, r5, r6, lr}
	movw	r4, #:lower16:.LANCHOR0
	movt	r4, #:upper16:.LANCHOR0
	ldr	r3, [r4, #12]
	cmp	r3, #0
	popeq	{r4, r5, r6, pc}
	movw	r5, #:lower16:.LC94
	add	r4, r4, #4
	movt	r5, #:upper16:.LC94
.L199:
	ldr	r1, [r3]
	mov	r0, r5
	bl	NAND_Print_DBG
	ldr	r4, [r4, #8]
	ldr	r3, [r4, #8]
	cmp	r3, #0
	bne	.L199
	pop	{r4, r5, r6, pc}
	.size	print_all_nftl_blk, .-print_all_nftl_blk
	.align	2
	.global	get_nftl_num
	.syntax unified
	.arm
	.type	get_nftl_num, %function
get_nftl_num:
	@ args = 0, pretend = 0, frame = 0
	@ frame_needed = 0, uses_anonymous_args = 0
	@ link register save eliminated.
	movw	r3, #:lower16:.LANCHOR0
	movt	r3, #:upper16:.LANCHOR0
	ldr	r3, [r3, #12]
	cmp	r3, #0
	beq	.L206
	mov	r0, #0
.L205:
	ldr	r3, [r3, #8]
	add	r0, r0, #1
	cmp	r3, #0
	bne	.L205
	bx	lr
.L206:
	mov	r0, r3
	bx	lr
	.size	get_nftl_num, .-get_nftl_num
	.align	2
	.global	get_nftl_cap
	.syntax unified
	.arm
	.type	get_nftl_cap, %function
get_nftl_cap:
	@ args = 0, pretend = 0, frame = 0
	@ frame_needed = 0, uses_anonymous_args = 0
	@ link register save eliminated.
	movw	r3, #:lower16:.LANCHOR0
	movt	r3, #:upper16:.LANCHOR0
	ldr	r3, [r3, #12]
	cmp	r3, #0
	beq	.L211
	mov	r0, #0
.L210:
	ldr	r2, [r3]
	ldr	r3, [r3, #8]
	add	r0, r0, r2
	cmp	r3, #0
	bne	.L210
	bx	lr
.L211:
	mov	r0, r3
	bx	lr
	.size	get_nftl_cap, .-get_nftl_cap
	.align	2
	.global	get_first_nftl_cap
	.syntax unified
	.arm
	.type	get_first_nftl_cap, %function
get_first_nftl_cap:
	@ args = 0, pretend = 0, frame = 0
	@ frame_needed = 0, uses_anonymous_args = 0
	@ link register save eliminated.
	movw	r3, #:lower16:.LANCHOR0
	movt	r3, #:upper16:.LANCHOR0
	ldr	r3, [r3, #12]
	ldr	r0, [r3]
	bx	lr
	.size	get_first_nftl_cap, .-get_first_nftl_cap
	.align	2
	.global	nftl_read
	.syntax unified
	.arm
	.type	nftl_read, %function
nftl_read:
	@ args = 0, pretend = 0, frame = 0
	@ frame_needed = 0, uses_anonymous_args = 0
	push	{r4, lr}
	subs	lr, r1, #0
	beq	.L224
	mov	r1, r0
	movw	r0, #:lower16:.LANCHOR0
	movt	r0, #:upper16:.LANCHOR0
	ldr	r0, [r0, #12]
	b	.L217
.L218:
	ldr	r0, [r0, #8]
	sub	r1, r1, ip
	cmp	r0, #0
	beq	.L225
.L217:
	ldr	ip, [r0]
	cmp	r1, ip
	bcs	.L218
	mov	r3, r2
	mov	r2, lr
	ldr	lr, [r0, #40]
	mov	ip, lr
	pop	{r4, lr}
	bx	ip
.L224:
	mov	r0, lr
	pop	{r4, pc}
.L225:
	movw	r0, #:lower16:.LC95
	mov	r2, lr
	movt	r0, #:upper16:.LC95
	bl	NAND_Print
	mov	r0, #1
	pop	{r4, pc}
	.size	nftl_read, .-nftl_read
	.align	2
	.global	nftl_write
	.syntax unified
	.arm
	.type	nftl_write, %function
nftl_write:
	@ args = 0, pretend = 0, frame = 0
	@ frame_needed = 0, uses_anonymous_args = 0
	push	{r4, lr}
	subs	lr, r1, #0
	beq	.L236
	mov	r1, r0
	movw	r0, #:lower16:.LANCHOR0
	movt	r0, #:upper16:.LANCHOR0
	ldr	r0, [r0, #12]
	b	.L229
.L230:
	ldr	r0, [r0, #8]
	sub	r1, r1, ip
	cmp	r0, #0
	beq	.L237
.L229:
	ldr	ip, [r0]
	cmp	r1, ip
	bcs	.L230
	mov	r3, r2
	mov	r2, lr
	ldr	lr, [r0, #44]
	mov	ip, lr
	pop	{r4, lr}
	bx	ip
.L236:
	mov	r0, lr
	pop	{r4, pc}
.L237:
	movw	r0, #:lower16:.LC95
	mov	r2, lr
	movt	r0, #:upper16:.LC95
	bl	NAND_Print
	mov	r0, #1
	pop	{r4, pc}
	.size	nftl_write, .-nftl_write
	.align	2
	.global	nftl_discard
	.syntax unified
	.arm
	.type	nftl_discard, %function
nftl_discard:
	@ args = 0, pretend = 0, frame = 0
	@ frame_needed = 0, uses_anonymous_args = 0
	subs	r2, r1, #0
	beq	.L249
	movw	r3, #:lower16:.LANCHOR0
	mov	r1, r0
	movt	r3, #:upper16:.LANCHOR0
	ldr	r0, [r3, #12]
	b	.L241
.L242:
	ldr	r0, [r0, #8]
	sub	r1, r1, r3
	cmp	r0, #0
	beq	.L250
.L241:
	ldr	r3, [r0]
	cmp	r1, r3
	bcs	.L242
	ldr	r3, [r0, #52]
	bx	r3
.L249:
	mov	r0, r2
	bx	lr
.L250:
	movw	r0, #:lower16:.LC95
	push	{r4, lr}
	movt	r0, #:upper16:.LC95
	bl	NAND_Print
	mov	r0, #1
	pop	{r4, pc}
	.size	nftl_discard, .-nftl_discard
	.align	2
	.global	nftl_flush_write_cache
	.syntax unified
	.arm
	.type	nftl_flush_write_cache, %function
nftl_flush_write_cache:
	@ args = 0, pretend = 0, frame = 0
	@ frame_needed = 0, uses_anonymous_args = 0
	movw	r3, #:lower16:.LANCHOR0
	push	{r4, lr}
	movt	r3, #:upper16:.LANCHOR0
	ldr	r4, [r3, #12]
	cmp	r4, #0
	beq	.L256
.L253:
	ldr	r3, [r4, #48]
	mov	r0, r4
	movw	r1, #65535
	blx	r3
	ldr	r4, [r4, #8]
	cmp	r4, #0
	bne	.L253
.L256:
	mov	r0, #0
	pop	{r4, pc}
	.size	nftl_flush_write_cache, .-nftl_flush_write_cache
	.align	2
	.global	nftl_malloc
	.syntax unified
	.arm
	.type	nftl_malloc, %function
nftl_malloc:
	@ args = 0, pretend = 0, frame = 0
	@ frame_needed = 0, uses_anonymous_args = 0
	cmp	r0, #1572864
	push	{r4, lr}
	mov	r4, r0
	bls	.L259
	movw	r0, #:lower16:.LC96
	mov	r1, r4
	movt	r0, #:upper16:.LC96
	bl	NAND_Print
.L259:
	mov	r0, r4
	pop	{r4, lr}
	b	NAND_Malloc
	.size	nftl_malloc, .-nftl_malloc
	.align	2
	.syntax unified
	.arm
	.type	init_nrc.isra.0, %function
init_nrc.isra.0:
	@ args = 0, pretend = 0, frame = 0
	@ frame_needed = 0, uses_anonymous_args = 0
	push	{r4, r5, r6, r7, r8, lr}
	mov	r6, r0
	sub	sp, sp, #8
	mov	r0, #16
	mov	r7, r1
	bl	NAND_Malloc
	subs	r4, r0, #0
	beq	.L281
	mov	r2, #16
	mov	r1, #0
	bl	NAND_Memset
	ldr	r3, [r6]
	ldrh	r0, [r3, #26]
	ldrh	r5, [r3, #20]
	add	r0, r0, #64
	mul	r0, r5, r0
	bl	nftl_malloc
	cmp	r0, #0
	str	r0, [r4, #8]
	beq	.L282
	lsl	r8, r5, #2
	mov	r0, r8
	bl	nftl_malloc
	cmp	r0, #0
	str	r0, [r4, #12]
	beq	.L283
	mov	r2, r8
	mov	r1, #255
	bl	NAND_Memset
	mov	r0, r5
	bl	nftl_malloc
	cmp	r0, #0
	str	r0, [r4, #4]
	beq	.L284
	mov	r2, r5
	mov	r1, #0
	bl	NAND_Memset
	str	r4, [r7]
	movw	r0, #:lower16:.LC101
	ldr	r1, [r6]
	mov	r2, r4
	ldr	ip, [r4, #4]
	movt	r0, #:upper16:.LC101
	ldr	r3, [r4, #8]
	ldrh	r1, [r1, #20]
	str	ip, [sp, #4]
	ldr	ip, [r4, #12]
	str	ip, [sp]
	bl	NAND_Print
	mov	r0, #0
.L263:
	add	sp, sp, #8
	@ sp needed
	pop	{r4, r5, r6, r7, r8, pc}
.L281:
	movw	r0, #:lower16:.LC97
	movw	r2, #1254
	movt	r0, #:upper16:.LC97
	ldr	r1, .L285
	bl	NAND_Print
	mvn	r0, #0
	b	.L263
.L283:
	movw	r0, #:lower16:.LC99
	movw	r2, #1268
	movt	r0, #:upper16:.LC99
	ldr	r1, .L285
	bl	NAND_Print
.L265:
	ldr	r0, [r4, #8]
	cmp	r0, #0
	beq	.L268
	mov	r1, #0
	bl	NAND_Free
.L268:
	ldr	r0, [r4, #12]
	cmp	r0, #0
	beq	.L269
	mov	r1, #0
	bl	NAND_Free
.L269:
	ldr	r0, [r4, #4]
	cmp	r0, #0
	beq	.L270
	mov	r1, #0
	bl	NAND_Free
.L270:
	mov	r0, r4
	mov	r1, #0
	bl	NAND_Free
	mov	r3, #0
	mvn	r0, #0
	str	r3, [r7]
	b	.L263
.L282:
	movw	r0, #:lower16:.LC98
	movw	r2, #1263
	ldr	r1, .L285
	movt	r0, #:upper16:.LC98
	bl	NAND_Print
	b	.L265
.L284:
	movw	r0, #:lower16:.LC100
	movw	r2, #1274
	ldr	r1, .L285
	movt	r0, #:upper16:.LC100
	bl	NAND_Print
	b	.L265
.L286:
	.align	2
.L285:
	.word	.LANCHOR2+512
	.size	init_nrc.isra.0, .-init_nrc.isra.0
	.align	2
	.global	nftl_free
	.syntax unified
	.arm
	.type	nftl_free, %function
nftl_free:
	@ args = 0, pretend = 0, frame = 0
	@ frame_needed = 0, uses_anonymous_args = 0
	@ link register save eliminated.
	mov	r1, #0
	b	NAND_Free
	.size	nftl_free, .-nftl_free
	.align	2
	.global	add_nftl_blk_list
	.syntax unified
	.arm
	.type	add_nftl_blk_list, %function
add_nftl_blk_list:
	@ args = 0, pretend = 0, frame = 0
	@ frame_needed = 0, uses_anonymous_args = 0
	@ link register save eliminated.
	mov	r3, #0
	str	r3, [r1, #8]
	b	.L289
.L290:
	mov	r0, r3
.L289:
	ldr	r3, [r0, #8]
	cmp	r3, #0
	bne	.L290
	str	r1, [r0, #8]
	bx	lr
	.size	add_nftl_blk_list, .-add_nftl_blk_list
	.align	2
	.global	del_last_nftl_blk
	.syntax unified
	.arm
	.type	del_last_nftl_blk, %function
del_last_nftl_blk:
	@ args = 0, pretend = 0, frame = 0
	@ frame_needed = 0, uses_anonymous_args = 0
	@ link register save eliminated.
	ldr	r3, [r0, #8]
	b	.L292
.L294:
	ldr	r2, [r3, #8]
	cmp	r2, #0
	beq	.L296
	mov	r0, r3
	mov	r3, r2
.L292:
	cmp	r3, #0
	bne	.L294
	mov	r0, r3
	bx	lr
.L296:
	str	r2, [r0, #8]
	mov	r0, r3
	bx	lr
	.size	del_last_nftl_blk, .-del_last_nftl_blk
	.align	2
	.global	m5_readretry_init
	.syntax unified
	.arm
	.type	m5_readretry_init, %function
m5_readretry_init:
	@ args = 0, pretend = 0, frame = 0
	@ frame_needed = 0, uses_anonymous_args = 0
	ldr	r1, [r0, #252]
	mov	r2, r0
	mov	ip, #0
	push	{r4, lr}
	str	ip, [r2, #176]
	mov	r3, #15
	movw	r4, #:lower16:.LANCHOR0
	movw	r0, #:lower16:.LC102
	ldrh	r2, [r1, #42]
	movt	r4, #:upper16:.LANCHOR0
	mov	r1, r3
	movt	r0, #:upper16:.LC102
	strb	r3, [r4, #77]
	strb	r2, [r4, #76]
	bl	NAND_Print_DBG
	ldrb	r3, [r4, #76]	@ zero_extendqisi2
	cmp	r3, #32
	mvnne	r0, #99
	moveq	r0, #0
	pop	{r4, pc}
	.size	m5_readretry_init, .-m5_readretry_init
	.align	2
	.global	m5_vender_set_param
	.syntax unified
	.arm
	.type	m5_vender_set_param, %function
m5_vender_set_param:
	@ args = 0, pretend = 0, frame = 0
	@ frame_needed = 0, uses_anonymous_args = 0
	push	{r4, r5, lr}
	mov	r4, r1
	sub	sp, sp, #20
	mov	r1, #1
	str	r3, [sp, #8]
	mov	r3, r2
	str	r1, [sp, #4]
	mov	r2, #0
	str	r4, [sp]
	ldr	r1, .L303
	bl	set_cmd_with_nand_bus
	ldrb	ip, [r4, #3]	@ zero_extendqisi2
	mov	r5, r0
	movw	r0, #:lower16:.LC103
	ldrb	r3, [r4, #2]	@ zero_extendqisi2
	ldrb	r2, [r4, #1]	@ zero_extendqisi2
	movt	r0, #:upper16:.LC103
	ldrb	r1, [r4]	@ zero_extendqisi2
	str	ip, [sp]
	bl	NAND_Print_DBG
	mov	r0, r5
	add	sp, sp, #20
	@ sp needed
	pop	{r4, r5, pc}
.L304:
	.align	2
.L303:
	.word	.LANCHOR1+4
	.size	m5_vender_set_param, .-m5_vender_set_param
	.align	2
	.global	m5_readretry_exit
	.syntax unified
	.arm
	.type	m5_readretry_exit, %function
m5_readretry_exit:
	@ args = 0, pretend = 0, frame = 0
	@ frame_needed = 0, uses_anonymous_args = 0
	@ link register save eliminated.
	mov	r0, #0
	bx	lr
	.size	m5_readretry_exit, .-m5_readretry_exit
	.align	2
	.global	m5_set_readretry
	.syntax unified
	.arm
	.type	m5_set_readretry, %function
m5_set_readretry:
	@ args = 0, pretend = 0, frame = 0
	@ frame_needed = 0, uses_anonymous_args = 0
	push	{r4, r5, r6, lr}
	mov	r4, r0
	bl	nand_enable_chip
	ldr	r0, [r4, #248]
	bl	ndfc_disable_randomize
	ldr	ip, [r4, #176]
	mov	r0, r4
	ldr	r1, .L312
	mov	r3, #4
	sub	r2, r1, #4
	add	r1, r1, ip, lsl #2
	bl	m5_vender_set_param
	subs	r5, r0, #0
	beq	.L307
	movw	r0, #:lower16:.LC104
	ldr	r1, [r4, #176]
	movt	r0, #:upper16:.LC104
	bl	NAND_Print
.L307:
	mov	r0, r4
	bl	nand_disable_chip
	mov	r0, r5
	pop	{r4, r5, r6, pc}
.L313:
	.align	2
.L312:
	.word	.LANCHOR1+12
	.size	m5_set_readretry, .-m5_set_readretry
	.align	2
	.global	m5_read_page_end
	.syntax unified
	.arm
	.type	m5_read_page_end, %function
m5_read_page_end:
	@ args = 0, pretend = 0, frame = 0
	@ frame_needed = 0, uses_anonymous_args = 0
	movw	r3, #:lower16:g_nsi
	push	{r4, r5, r6, r7, r8, lr}
	movt	r3, #:upper16:g_nsi
	ldr	r1, [r0]
	sub	sp, sp, #8
	mov	r8, r0
	ldr	r0, [r3]
	bl	nci_get_from_nsi
	mov	r7, r0
	mov	r0, r8
	bl	m0_read_page_end_not_retry
	cmn	r0, #2
	mov	r5, r0
	beq	.L324
	mov	r0, r5
	add	sp, sp, #8
	@ sp needed
	pop	{r4, r5, r6, r7, r8, pc}
.L324:
	movw	r0, #:lower16:.LC105
	movw	r6, #:lower16:.LANCHOR0
	movt	r0, #:upper16:.LC105
	movt	r6, #:upper16:.LANCHOR0
	bl	NAND_Print_DBG
	ldrb	r3, [r6, #77]	@ zero_extendqisi2
	cmp	r3, #1
	ble	.L316
	mov	r4, #1
	b	.L318
.L317:
	ldrb	r3, [r6, #77]	@ zero_extendqisi2
	cmp	r3, r4
	ble	.L316
.L318:
	str	r4, [r7, #176]
	mov	r0, r7
	bl	m5_set_readretry
	subs	r5, r0, #0
	add	r4, r4, #1
	bne	.L317
	mov	r0, r8
	bl	m0_read_page_start
	mov	r5, r0
	mov	r0, r8
	bl	m0_read_page_end_not_retry
	orr	r5, r5, r0
	cmp	r5, #0
	cmpne	r5, #10
	bne	.L317
	ldr	r2, [r7, #248]
	movw	r0, #:lower16:.LC106
	ldr	lr, [r8, #8]
	movt	r0, #:upper16:.LC106
	ldr	ip, [r7, #176]
	mov	r5, #10
	ldr	r1, [r2, #8]
	ldr	r3, [r8, #4]
	ldr	r2, [r7, #20]
	str	lr, [sp]
	str	ip, [sp, #4]
	bl	NAND_Print_DBG
.L316:
	mov	r3, #0
	mov	r0, r7
	str	r3, [r7, #176]
	bl	m5_set_readretry
	mov	r0, r5
	add	sp, sp, #8
	@ sp needed
	pop	{r4, r5, r6, r7, r8, pc}
	.size	m5_read_page_end, .-m5_read_page_end
	.align	2
	.global	m5_special_init
	.syntax unified
	.arm
	.type	m5_special_init, %function
m5_special_init:
	@ args = 0, pretend = 0, frame = 0
	@ frame_needed = 0, uses_anonymous_args = 0
	movw	r3, #:lower16:g_nsi
	push	{r4, r5, r6, lr}
	movt	r3, #:upper16:g_nsi
	ldr	r3, [r3]
	ldr	r4, [r3, #8]
	cmp	r4, #0
	beq	.L326
	mov	r5, #0
.L327:
	mov	r0, r4
	bl	m5_readretry_init
	ldr	r4, [r4]
	orr	r5, r5, r0
	cmp	r4, #0
	bne	.L327
	cmp	r5, #0
	beq	.L326
	movw	r3, #:lower16:.LANCHOR0
	movw	r0, #:lower16:.LC108
	movt	r3, #:upper16:.LANCHOR0
	movt	r0, #:upper16:.LC108
	ldrb	r2, [r3, #77]	@ zero_extendqisi2
	ldrb	r1, [r3, #76]	@ zero_extendqisi2
	bl	NAND_Print
	mov	r0, r5
	pop	{r4, r5, r6, pc}
.L326:
	movw	r3, #:lower16:.LANCHOR0
	movw	ip, #:lower16:function_read_page_end
	movt	r3, #:upper16:.LANCHOR0
	movw	lr, #:lower16:m5_read_page_end
	movw	r0, #:lower16:.LC107
	movt	ip, #:upper16:function_read_page_end
	movt	lr, #:upper16:m5_read_page_end
	ldrb	r2, [r3, #77]	@ zero_extendqisi2
	ldrb	r1, [r3, #76]	@ zero_extendqisi2
	mov	r5, #0
	movt	r0, #:upper16:.LC107
	str	lr, [ip]
	bl	NAND_Print_DBG
	mov	r0, r5
	pop	{r4, r5, r6, pc}
	.size	m5_special_init, .-m5_special_init
	.align	2
	.global	m5_special_exit
	.syntax unified
	.arm
	.type	m5_special_exit, %function
m5_special_exit:
	@ args = 0, pretend = 0, frame = 0
	@ frame_needed = 0, uses_anonymous_args = 0
	movw	r3, #:lower16:g_nsi
	push	{r4, lr}
	movt	r3, #:upper16:g_nsi
	ldr	r3, [r3]
	ldr	r3, [r3, #8]
	cmp	r3, #0
	beq	.L336
.L337:
	ldr	r3, [r3]
	cmp	r3, #0
	bne	.L337
.L336:
	movw	r0, #:lower16:.LC109
	movt	r0, #:upper16:.LC109
	bl	NAND_Print_DBG
	mov	r0, #0
	pop	{r4, pc}
	.size	m5_special_exit, .-m5_special_exit
	.align	2
	.global	m0_special_init
	.syntax unified
	.arm
	.type	m0_special_init, %function
m0_special_init:
	@ args = 0, pretend = 0, frame = 0
	@ frame_needed = 0, uses_anonymous_args = 0
	movw	r3, #:lower16:function_read_page_end
	movw	r2, #:lower16:m0_read_page_end_not_retry
	movw	r0, #:lower16:.LC110
	push	{r4, lr}
	movt	r3, #:upper16:function_read_page_end
	movt	r2, #:upper16:m0_read_page_end_not_retry
	movt	r0, #:upper16:.LC110
	str	r2, [r3]
	bl	NAND_Print_DBG
	mov	r0, #0
	pop	{r4, pc}
	.size	m0_special_init, .-m0_special_init
	.align	2
	.global	m0_special_exit
	.syntax unified
	.arm
	.type	m0_special_exit, %function
m0_special_exit:
	@ args = 0, pretend = 0, frame = 0
	@ frame_needed = 0, uses_anonymous_args = 0
	movw	r0, #:lower16:.LC111
	push	{r4, lr}
	movt	r0, #:upper16:.LC111
	bl	NAND_Print_DBG
	mov	r0, #0
	pop	{r4, pc}
	.size	m0_special_exit, .-m0_special_exit
	.align	2
	.global	m0_is_lsb_page
	.syntax unified
	.arm
	.type	m0_is_lsb_page, %function
m0_is_lsb_page:
	@ args = 0, pretend = 0, frame = 0
	@ frame_needed = 0, uses_anonymous_args = 0
	@ link register save eliminated.
	mov	r0, #1
	bx	lr
	.size	m0_is_lsb_page, .-m0_is_lsb_page
	.align	2
	.global	m3_lsb_init
	.syntax unified
	.arm
	.type	m3_lsb_init, %function
m3_lsb_init:
	@ args = 0, pretend = 0, frame = 0
	@ frame_needed = 0, uses_anonymous_args = 0
	ldr	r2, [r0, #252]
	movw	r3, #:lower16:.LANCHOR0
	movt	r3, #:upper16:.LANCHOR0
	mvn	r0, #91
	push	{r4, r5, lr}
	mov	ip, #5
	ldr	r2, [r2, #40]
	mvn	r1, #90
	mvn	r5, #79
	mvn	r4, #78
	strb	r0, [r3, #84]
	mvn	lr, #54
	strb	r2, [r3, #80]
	lsr	r0, r2, #16
	lsr	r2, r2, #8
	strb	ip, [r3, #81]
	strb	r1, [r3, #85]
	mov	ip, #1
	mov	r1, #37
	strb	r0, [r3, #78]
	strb	r2, [r3, #79]
	mov	r0, #0
	strb	r5, [r3, #86]
	strb	r4, [r3, #87]
	strb	lr, [r3, #88]
	strb	ip, [r3, #96]
	strb	r1, [r3, #92]
	strb	r1, [r3, #93]
	strb	r1, [r3, #94]
	strb	r1, [r3, #95]
	pop	{r4, r5, pc}
	.size	m3_lsb_init, .-m3_lsb_init
	.align	2
	.global	m3_lsb_exit
	.syntax unified
	.arm
	.type	m3_lsb_exit, %function
m3_lsb_exit:
	@ args = 0, pretend = 0, frame = 0
	@ frame_needed = 0, uses_anonymous_args = 0
	push	{r4, lr}
	mov	r4, r0
	bl	nand_enable_chip
	ldr	r0, [r4, #248]
	bl	ndfc_disable_randomize
	mov	r2, #0
	mov	r0, r4
	mov	r1, r2
	bl	set_one_cmd
	mov	r0, r4
	mov	r1, #0
	bl	set_one_addr
	mov	r0, r4
	mov	r1, #0
	bl	set_one_addr
	mov	r0, r4
	mov	r1, #0
	bl	set_one_addr
	mov	r0, r4
	mov	r1, #0
	bl	set_one_addr
	mov	r0, r4
	mov	r1, #0
	bl	set_one_addr
	mov	r2, #1
	mov	r1, #48
	mov	r0, r4
	bl	set_one_cmd
	movw	r0, #:lower16:.LC112
	movt	r0, #:upper16:.LC112
	bl	NAND_Print_DBG
	mov	r0, r4
	bl	nand_disable_chip
	mov	r0, #0
	pop	{r4, pc}
	.size	m3_lsb_exit, .-m3_lsb_exit
	.align	2
	.global	m7_activation_seq
	.syntax unified
	.arm
	.type	m7_activation_seq, %function
m7_activation_seq:
	@ args = 0, pretend = 0, frame = 24
	@ frame_needed = 0, uses_anonymous_args = 0
	ldr	r2, .L358
	push	{r4, r5, r6, r7, lr}
	mov	r5, r0
	sub	sp, sp, #44
	mov	r4, #0
	add	r3, sp, #16
	add	r7, sp, #28
	ldr	r1, [r2, #4]	@ unaligned
	ldr	r0, [r2]	@ unaligned
	ldrb	r2, [r2, #8]	@ zero_extendqisi2
	str	r4, [sp, #32]
	stmia	r3!, {r0, r1}
	mov	r0, r5
	strb	r2, [r3]
	str	r4, [sp, #28]
	strb	r4, [sp, #36]
	bl	nand_enable_chip
	ldr	r0, [r5, #248]
	bl	ndfc_disable_randomize
	mov	r1, #2
	mov	r3, r4
	mov	r2, r4
	str	r4, [sp, #4]
	str	r4, [sp]
	mov	r0, r5
	str	r1, [sp, #8]
	ldr	r1, .L358+4
	bl	set_cmd_with_nand_bus
	mov	r1, #9
	mov	r3, #1
	mov	r2, r4
	mov	r6, r0
	str	r1, [sp, #8]
	mov	r0, r5
	add	r1, sp, #16
	str	r3, [sp, #4]
	str	r7, [sp]
	ldr	r3, .L358+8
	bl	set_cmd_with_nand_bus
	orr	r4, r6, r0
	mov	r0, r5
	bl	nand_disable_chip
	cmp	r4, #0
	beq	.L353
	movw	r0, #:lower16:.LC113
	mov	r1, r4
	movt	r0, #:upper16:.LC113
	bl	NAND_Print
.L353:
	mov	r0, r4
	add	sp, sp, #44
	@ sp needed
	pop	{r4, r5, r6, r7, pc}
.L359:
	.align	2
.L358:
	.word	.LANCHOR2+524
	.word	.LANCHOR1+72
	.word	.LANCHOR1+76
	.size	m7_activation_seq, .-m7_activation_seq
	.align	2
	.global	m7_readretry_init
	.syntax unified
	.arm
	.type	m7_readretry_init, %function
m7_readretry_init:
	@ args = 0, pretend = 0, frame = 0
	@ frame_needed = 0, uses_anonymous_args = 0
	ldr	r2, [r0, #252]
	mov	r1, #0
	push	{r4, lr}
	movw	r4, #:lower16:.LANCHOR0
	str	r1, [r0, #176]
	movt	r4, #:upper16:.LANCHOR0
	ldr	r3, [r2, #40]
	ubfx	r1, r3, #16, #8
	strb	r3, [r4, #99]
	sub	r2, r1, #48
	lsr	r3, r3, #8
	uxtb	r2, r2
	strb	r1, [r4, #97]
	strb	r3, [r4, #98]
	cmp	r2, #1
	bls	.L365
.L361:
	cmp	r2, #2
	bhi	.L363
	movw	r0, #:lower16:.LC114
	ldrb	r1, [r4, #98]	@ zero_extendqisi2
	movt	r0, #:upper16:.LC114
	bl	NAND_Print_DBG
	mov	r0, #0
	pop	{r4, pc}
.L365:
	bl	m7_activation_seq
	ldrb	r2, [r4, #97]	@ zero_extendqisi2
	sub	r2, r2, #48
	uxtb	r2, r2
	b	.L361
.L363:
	mvn	r0, #98
	pop	{r4, pc}
	.size	m7_readretry_init, .-m7_readretry_init
	.align	2
	.global	m7_readretry_exit
	.syntax unified
	.arm
	.type	m7_readretry_exit, %function
m7_readretry_exit:
	@ args = 0, pretend = 0, frame = 0
	@ frame_needed = 0, uses_anonymous_args = 0
	@ link register save eliminated.
	mov	r0, #0
	bx	lr
	.size	m7_readretry_exit, .-m7_readretry_exit
	.align	2
	.global	m7_read_retry_clock_save
	.syntax unified
	.arm
	.type	m7_read_retry_clock_save, %function
m7_read_retry_clock_save:
	@ args = 0, pretend = 0, frame = 0
	@ frame_needed = 0, uses_anonymous_args = 0
	ldr	r3, [r0, #248]
	movw	r1, #:lower16:.LANCHOR0
	movt	r1, #:upper16:.LANCHOR0
	push	{r4, lr}
	add	r2, r1, #100
	mov	r4, r0
	add	r1, r1, #104
	ldr	r0, [r3, #8]
	bl	NAND_GetClk
	ldr	r3, [r4, #248]
	mov	r2, #20
	mov	r1, #10
	ldr	r0, [r3, #8]
	bl	NAND_SetClk
	mov	r0, #0
	pop	{r4, pc}
	.size	m7_read_retry_clock_save, .-m7_read_retry_clock_save
	.align	2
	.global	m7_read_retry_clock_recover
	.syntax unified
	.arm
	.type	m7_read_retry_clock_recover, %function
m7_read_retry_clock_recover:
	@ args = 0, pretend = 0, frame = 0
	@ frame_needed = 0, uses_anonymous_args = 0
	ldr	r1, [r0, #248]
	movw	r3, #:lower16:.LANCHOR0
	movt	r3, #:upper16:.LANCHOR0
	push	{r4, lr}
	ldr	r2, [r3, #100]
	ldr	r0, [r1, #8]
	ldr	r1, [r3, #104]
	bl	NAND_SetClk
	mov	r0, #0
	pop	{r4, pc}
	.size	m7_read_retry_clock_recover, .-m7_read_retry_clock_recover
	.align	2
	.global	m7_end_one_read_retry
	.syntax unified
	.arm
	.type	m7_end_one_read_retry, %function
m7_end_one_read_retry:
	@ args = 0, pretend = 0, frame = 0
	@ frame_needed = 0, uses_anonymous_args = 0
	movw	r3, #:lower16:.LANCHOR0
	movt	r3, #:upper16:.LANCHOR0
	ldrb	r3, [r3, #97]	@ zero_extendqisi2
	sub	r3, r3, #48
	cmp	r3, #1
	bls	.L375
	mov	r0, #0
	bx	lr
.L375:
	push	{r4, lr}
	bl	m7_end_one_read_retry.part.1
	mov	r0, #0
	pop	{r4, pc}
	.size	m7_end_one_read_retry, .-m7_end_one_read_retry
	.align	2
	.global	m7_vender_set_param
	.syntax unified
	.arm
	.type	m7_vender_set_param, %function
m7_vender_set_param:
	@ args = 0, pretend = 0, frame = 0
	@ frame_needed = 0, uses_anonymous_args = 0
	push	{r4, r5, r6, r7, r8, r9, lr}
	movw	r4, #:lower16:.LANCHOR0
	movt	r4, #:upper16:.LANCHOR0
	mov	r7, r2
	mov	r6, r0
	sub	sp, sp, #20
	ldrb	r3, [r4, #97]	@ zero_extendqisi2
	mov	r8, r1
	sub	r2, r3, #48
	cmp	r2, #1
	movhi	r0, #0
	bls	.L381
.L377:
	cmp	r3, #50
	beq	.L382
	add	sp, sp, #20
	@ sp needed
	pop	{r4, r5, r6, r7, r8, r9, pc}
.L382:
	mov	r2, #1
	mov	r1, #4
	stmib	sp, {r1, r2}
	mov	r3, r7
	str	r8, [sp]
	mov	r0, r6
	ldr	r1, .L383
	bl	set_cmd_with_nand_bus
	add	sp, sp, #20
	@ sp needed
	pop	{r4, r5, r6, r7, r8, r9, pc}
.L381:
	mov	r9, #0
	mov	r3, #2
	str	r3, [sp, #8]
	mov	r2, r9
	mov	r3, r9
	ldr	r1, .L383+4
	str	r9, [sp, #4]
	str	r9, [sp]
	bl	set_cmd_with_nand_bus
	mov	r3, #3
	mov	r1, #1
	mov	r5, r0
	str	r3, [sp, #8]
	str	r1, [sp, #4]
	mov	r3, r7
	mov	r0, r6
	mov	r2, r9
	str	r8, [sp]
	ldr	r1, .L383+8
	bl	set_cmd_with_nand_bus
	ldrb	r3, [r4, #97]	@ zero_extendqisi2
	orr	r0, r5, r0
	b	.L377
.L384:
	.align	2
.L383:
	.word	.LANCHOR1+92
	.word	.LANCHOR1+72
	.word	.LANCHOR1+88
	.size	m7_vender_set_param, .-m7_vender_set_param
	.align	2
	.global	m7_set_readretry
	.syntax unified
	.arm
	.type	m7_set_readretry, %function
m7_set_readretry:
	@ args = 0, pretend = 0, frame = 0
	@ frame_needed = 0, uses_anonymous_args = 0
	push	{r4, r5, r6, lr}
	mov	r4, r0
	mov	r6, r1
	bl	m7_read_retry_clock_save
	mov	r0, r4
	bl	nand_enable_chip
	ldr	r0, [r4, #248]
	bl	ndfc_disable_randomize
	ldr	r0, [r4, #248]
	bl	ndfc_is_toogle_interface
	cmp	r0, #0
	bne	.L406
	movw	r5, #:lower16:.LANCHOR0
	movt	r5, #:upper16:.LANCHOR0
	ldrb	r3, [r5, #97]	@ zero_extendqisi2
	cmp	r3, #48
	beq	.L409
.L387:
	cmp	r3, #49
	beq	.L410
	cmp	r3, #50
	movne	r6, #0
	beq	.L411
.L391:
	ldr	r3, [r5]
	cmp	r3, #1
	beq	.L412
.L393:
	mov	r0, r4
	bl	nand_disable_chip
	ldr	r3, [r4, #248]
	ldr	r2, [r5, #100]
	ldr	r1, [r5, #104]
	ldr	r0, [r3, #8]
	bl	NAND_SetClk
	mov	r0, r6
	pop	{r4, r5, r6, pc}
.L406:
	ldr	r0, [r4, #248]
	movw	r5, #:lower16:.LANCHOR0
	bl	ndfc_set_legacy_interface
	movt	r5, #:upper16:.LANCHOR0
	mov	r3, #1
	str	r3, [r5]
	ldrb	r3, [r5, #97]	@ zero_extendqisi2
	cmp	r3, #48
	bne	.L387
.L409:
	cmp	r6, #255
	beq	.L388
	cmp	r6, #0
	bne	.L413
.L389:
	ldr	r3, [r4, #176]
	mov	r2, #16
	ldr	r1, .L414
	strb	r2, [r5, #98]
	add	r3, r3, r3, lsl #1
	add	r1, r1, r3
.L390:
	ldr	r2, .L414+4
	mov	r3, #3
	mov	r0, r4
.L408:
	bl	m7_vender_set_param
	mov	r2, #0
	mov	r6, r0
	mov	r1, #182
	mov	r0, r4
	bl	set_one_cmd
	ldr	r3, [r5]
	cmp	r3, #1
	bne	.L393
.L412:
	ldr	r0, [r4, #248]
	bl	ndfc_set_toogle_interface
	b	.L393
.L413:
	tst	r6, #1
	bne	.L389
.L388:
	ldr	r3, [r4, #176]
	mov	r2, #20
	ldr	r1, .L414+8
	strb	r2, [r5, #98]
	add	r3, r3, r3, lsl #1
	add	r1, r1, r3
	b	.L390
.L410:
	ldr	r2, [r4, #176]
	mov	r3, #3
	ldr	ip, .L414+12
	mov	r0, r4
	add	r1, r2, r2, lsl #1
	sub	r2, ip, #12
	add	r1, ip, r1
	b	.L408
.L411:
	ldr	ip, [r4, #176]
	mov	r3, #1
	ldr	r1, .L414+16
	mov	r0, r4
	sub	r2, r1, #4
	add	r1, r1, ip, lsl #2
	bl	m7_vender_set_param
	mov	r2, #0
	mov	r6, r0
	mov	r1, #93
	mov	r0, r4
	bl	set_one_cmd
	b	.L391
.L415:
	.align	2
.L414:
	.word	.LANCHOR1+96
	.word	.LANCHOR1+204
	.word	.LANCHOR1+144
	.word	.LANCHOR1+228
	.word	.LANCHOR1+260
	.size	m7_set_readretry, .-m7_set_readretry
	.align	2
	.global	m7_exit_readretry
	.syntax unified
	.arm
	.type	m7_exit_readretry, %function
m7_exit_readretry:
	@ args = 0, pretend = 0, frame = 8
	@ frame_needed = 0, uses_anonymous_args = 0
	push	{r4, r5, r6, lr}
	mov	r3, #0
	sub	sp, sp, #8
	mov	r5, r0
	str	r3, [sp, #4]
	bl	nand_enable_chip
	ldr	r0, [r5, #248]
	bl	ndfc_disable_randomize
	ldr	r0, [r5, #248]
	bl	ndfc_is_toogle_interface
	cmp	r0, #0
	bne	.L425
	movw	r4, #:lower16:.LANCHOR0
	movt	r4, #:upper16:.LANCHOR0
	ldrb	r3, [r4, #97]	@ zero_extendqisi2
	cmp	r3, #48
	beq	.L427
.L418:
	cmp	r3, #49
	beq	.L428
	cmp	r3, #50
	movne	r6, #0
	beq	.L429
.L419:
	ldr	r3, [r4]
	cmp	r3, #1
	beq	.L430
.L421:
	mov	r0, r5
	bl	nand_disable_chip
	mov	r0, r6
	add	sp, sp, #8
	@ sp needed
	pop	{r4, r5, r6, pc}
.L425:
	ldr	r0, [r5, #248]
	movw	r4, #:lower16:.LANCHOR0
	bl	ndfc_set_legacy_interface
	movt	r4, #:upper16:.LANCHOR0
	mov	r3, #1
	str	r3, [r4]
	ldrb	r3, [r4, #97]	@ zero_extendqisi2
	cmp	r3, #48
	bne	.L418
.L427:
	mov	r3, #3
	ldr	r2, .L431
	add	r1, sp, #4
	mov	r0, r5
	bl	m7_vender_set_param
	ldr	r3, [r4]
	mov	r6, r0
	cmp	r3, #1
	bne	.L421
.L430:
	ldr	r0, [r5, #248]
	bl	ndfc_set_toogle_interface
	b	.L421
.L428:
	mov	r3, #3
	ldr	r2, .L431+4
	add	r1, sp, #4
	mov	r0, r5
	bl	m7_vender_set_param
	mov	r6, r0
	b	.L419
.L429:
	mov	r2, #1
	mov	r1, #255
	mov	r0, r5
	bl	set_one_cmd
	mov	r3, #1
	ldr	r2, .L431+8
	add	r1, sp, #4
	mov	r0, r5
	bl	m7_vender_set_param
	mov	r6, r0
	b	.L419
.L432:
	.align	2
.L431:
	.word	.LANCHOR1+204
	.word	.LANCHOR1+216
	.word	.LANCHOR1+256
	.size	m7_exit_readretry, .-m7_exit_readretry
	.align	2
	.global	m7_read_page_end
	.syntax unified
	.arm
	.type	m7_read_page_end, %function
m7_read_page_end:
	@ args = 0, pretend = 0, frame = 0
	@ frame_needed = 0, uses_anonymous_args = 0
	movw	r3, #:lower16:g_nsi
	push	{r4, r5, r6, r7, r8, r9, lr}
	movt	r3, #:upper16:g_nsi
	ldr	r1, [r0]
	sub	sp, sp, #12
	mov	r6, r0
	ldr	r0, [r3]
	bl	nci_get_from_nsi
	mov	r7, r0
	mov	r0, r6
	bl	m0_read_page_end_not_retry
	cmn	r0, #2
	mov	r5, r0
	beq	.L451
	mov	r0, r5
	add	sp, sp, #12
	@ sp needed
	pop	{r4, r5, r6, r7, r8, r9, pc}
.L451:
	movw	r0, #:lower16:.LC115
	movw	r8, #:lower16:.LANCHOR0
	movt	r0, #:upper16:.LC115
	movt	r8, #:upper16:.LANCHOR0
	bl	NAND_Print_DBG
	ldrb	r3, [r8, #98]	@ zero_extendqisi2
	cmp	r3, #0
	beq	.L435
	movw	r9, #:lower16:.LC117
	mov	r4, #0
	movt	r9, #:upper16:.LC117
	b	.L442
.L436:
	ldrb	r3, [r8, #98]	@ zero_extendqisi2
	add	r4, r4, #1
	cmp	r3, r4
	ble	.L435
.L442:
	str	r4, [r7, #176]
	mov	r0, r7
	ldrh	r1, [r6, #8]
	bl	m7_set_readretry
	subs	r5, r0, #0
	bne	.L436
	mov	r0, r6
	bl	m0_read_page_start
	mov	r5, r0
	mov	r0, r6
	bl	m0_read_page_end_not_retry
	ldrb	r3, [r8, #97]	@ zero_extendqisi2
	orr	r5, r5, r0
	sub	r3, r3, #48
	cmp	r3, #1
	bls	.L452
.L437:
	ldr	ip, [r6, #20]
	mov	r0, #0
	sub	r3, ip, #1
	add	r1, ip, #9
.L439:
	ldrb	r2, [r3, #1]!	@ zero_extendqisi2
	cmp	r2, #255
	addeq	r0, r0, #1
	cmp	r1, r3
	bne	.L439
	cmp	r0, #8
	bls	.L440
	ldrb	r3, [ip]	@ zero_extendqisi2
	cmp	r3, #255
	beq	.L453
.L440:
	cmp	r5, #0
	cmpne	r5, #10
	bne	.L436
	ldr	r2, [r7, #248]
	movw	r0, #:lower16:.LC116
	ldr	lr, [r6, #8]
	movt	r0, #:upper16:.LC116
	ldr	ip, [r7, #176]
	mov	r5, #10
	ldr	r1, [r2, #8]
	ldr	r3, [r6, #4]
	ldr	r2, [r7, #20]
	str	lr, [sp]
	str	ip, [sp, #4]
	bl	NAND_Print_DBG
.L435:
	mov	r3, #0
	mov	r0, r7
	str	r3, [r7, #176]
	bl	m7_exit_readretry
	mov	r0, r5
	add	sp, sp, #12
	@ sp needed
	pop	{r4, r5, r6, r7, r8, r9, pc}
.L453:
	ldr	r1, [r7, #248]
	mov	r0, r9
	ldr	lr, [r7, #176]
	mvn	r5, #1
	ldr	ip, [r6, #8]
	ldr	r3, [r6, #4]
	ldr	r2, [r7, #20]
	ldr	r1, [r1, #8]
	stm	sp, {ip, lr}
	bl	NAND_Print_DBG
	b	.L436
.L452:
	mov	r0, r7
	bl	m7_end_one_read_retry.part.1
	b	.L437
	.size	m7_read_page_end, .-m7_read_page_end
	.align	2
	.global	m7_special_init
	.syntax unified
	.arm
	.type	m7_special_init, %function
m7_special_init:
	@ args = 0, pretend = 0, frame = 0
	@ frame_needed = 0, uses_anonymous_args = 0
	movw	r3, #:lower16:g_nsi
	push	{r4, r5, r6, lr}
	movt	r3, #:upper16:g_nsi
	ldr	r3, [r3]
	ldr	r4, [r3, #8]
	cmp	r4, #0
	beq	.L455
	mov	r5, #0
.L456:
	mov	r0, r4
	bl	m7_readretry_init
	ldr	r4, [r4]
	orr	r5, r5, r0
	cmp	r4, #0
	bne	.L456
	cmp	r5, #0
	beq	.L455
	movw	r1, #:lower16:.LANCHOR0
	movw	r0, #:lower16:.LC119
	movt	r1, #:upper16:.LANCHOR0
	movt	r0, #:upper16:.LC119
	ldrb	r3, [r1, #99]	@ zero_extendqisi2
	ldrb	r2, [r1, #98]	@ zero_extendqisi2
	ldrb	r1, [r1, #97]	@ zero_extendqisi2
	bl	NAND_Print
	mov	r0, r5
	pop	{r4, r5, r6, pc}
.L455:
	movw	r1, #:lower16:.LANCHOR0
	movw	ip, #:lower16:function_read_page_end
	movt	r1, #:upper16:.LANCHOR0
	movw	lr, #:lower16:m7_read_page_end
	movw	r0, #:lower16:.LC118
	ldrb	r3, [r1, #99]	@ zero_extendqisi2
	ldrb	r2, [r1, #98]	@ zero_extendqisi2
	movt	ip, #:upper16:function_read_page_end
	movt	lr, #:upper16:m7_read_page_end
	ldrb	r1, [r1, #97]	@ zero_extendqisi2
	mov	r5, #0
	movt	r0, #:upper16:.LC118
	str	lr, [ip]
	bl	NAND_Print_DBG
	mov	r0, r5
	pop	{r4, r5, r6, pc}
	.size	m7_special_init, .-m7_special_init
	.align	2
	.global	m7_special_exit
	.syntax unified
	.arm
	.type	m7_special_exit, %function
m7_special_exit:
	@ args = 0, pretend = 0, frame = 0
	@ frame_needed = 0, uses_anonymous_args = 0
	movw	r3, #:lower16:g_nsi
	push	{r4, lr}
	movt	r3, #:upper16:g_nsi
	ldr	r3, [r3]
	ldr	r3, [r3, #8]
	cmp	r3, #0
	beq	.L465
.L466:
	ldr	r3, [r3]
	cmp	r3, #0
	bne	.L466
.L465:
	movw	r0, #:lower16:.LC120
	movt	r0, #:upper16:.LC120
	bl	NAND_Print_DBG
	mov	r0, #0
	pop	{r4, pc}
	.size	m7_special_exit, .-m7_special_exit
	.align	2
	.global	m6_readretry_init
	.syntax unified
	.arm
	.type	m6_readretry_init, %function
m6_readretry_init:
	@ args = 0, pretend = 0, frame = 0
	@ frame_needed = 0, uses_anonymous_args = 0
	ldr	r1, [r0, #252]
	mov	r2, r0
	push	{r4, lr}
	mov	r4, #0
	str	r4, [r2, #176]
	movw	r3, #:lower16:.LANCHOR0
	movt	r3, #:upper16:.LANCHOR0
	movw	r0, #:lower16:.LC121
	ldr	r2, [r1, #40]
	movt	r0, #:upper16:.LC121
	strb	r2, [r3, #110]
	lsr	ip, r2, #8
	lsr	r2, r2, #16
	uxtb	r1, ip
	strb	ip, [r3, #109]
	strb	r2, [r3, #108]
	bl	NAND_Print_DBG
	mov	r0, r4
	pop	{r4, pc}
	.size	m6_readretry_init, .-m6_readretry_init
	.align	2
	.global	m6_readretry_exit
	.syntax unified
	.arm
	.type	m6_readretry_exit, %function
m6_readretry_exit:
	@ args = 0, pretend = 0, frame = 0
	@ frame_needed = 0, uses_anonymous_args = 0
	@ link register save eliminated.
	mov	r0, #0
	bx	lr
	.size	m6_readretry_exit, .-m6_readretry_exit
	.align	2
	.global	m6_vender_pre_condition
	.syntax unified
	.arm
	.type	m6_vender_pre_condition, %function
m6_vender_pre_condition:
	@ args = 0, pretend = 0, frame = 0
	@ frame_needed = 0, uses_anonymous_args = 0
	push	{r4, lr}
	mov	r1, #0
	sub	sp, sp, #16
	mov	r3, #2
	mov	r2, r1
	str	r3, [sp, #8]
	mov	r3, r1
	str	r1, [sp, #4]
	str	r1, [sp]
	ldr	r1, .L481
	bl	set_cmd_with_nand_bus
	subs	r4, r0, #0
	beq	.L476
	movw	r0, #:lower16:.LC122
	movt	r0, #:upper16:.LC122
	bl	NAND_Print
.L476:
	mov	r0, r4
	add	sp, sp, #16
	@ sp needed
	pop	{r4, pc}
.L482:
	.align	2
.L481:
	.word	.LANCHOR1+336
	.size	m6_vender_pre_condition, .-m6_vender_pre_condition
	.align	2
	.global	m6_read_retry_clock_save
	.syntax unified
	.arm
	.type	m6_read_retry_clock_save, %function
m6_read_retry_clock_save:
	@ args = 0, pretend = 0, frame = 0
	@ frame_needed = 0, uses_anonymous_args = 0
	ldr	r3, [r0, #248]
	movw	r1, #:lower16:.LANCHOR0
	movt	r1, #:upper16:.LANCHOR0
	push	{r4, lr}
	add	r2, r1, #112
	mov	r4, r0
	add	r1, r1, #116
	ldr	r0, [r3, #8]
	bl	NAND_GetClk
	ldr	r3, [r4, #248]
	mov	r2, #20
	mov	r1, #10
	ldr	r0, [r3, #8]
	bl	NAND_SetClk
	mov	r0, #0
	pop	{r4, pc}
	.size	m6_read_retry_clock_save, .-m6_read_retry_clock_save
	.align	2
	.global	m6_read_retry_clock_recover
	.syntax unified
	.arm
	.type	m6_read_retry_clock_recover, %function
m6_read_retry_clock_recover:
	@ args = 0, pretend = 0, frame = 0
	@ frame_needed = 0, uses_anonymous_args = 0
	ldr	r1, [r0, #248]
	movw	r3, #:lower16:.LANCHOR0
	movt	r3, #:upper16:.LANCHOR0
	push	{r4, lr}
	ldr	r2, [r3, #112]
	ldr	r0, [r1, #8]
	ldr	r1, [r3, #116]
	bl	NAND_SetClk
	mov	r0, #0
	pop	{r4, pc}
	.size	m6_read_retry_clock_recover, .-m6_read_retry_clock_recover
	.align	2
	.global	m6_vender_set_param
	.syntax unified
	.arm
	.type	m6_vender_set_param, %function
m6_vender_set_param:
	@ args = 0, pretend = 0, frame = 0
	@ frame_needed = 0, uses_anonymous_args = 0
	push	{r4, r5, r6, r7, r8, r9, r10, fp, lr}
	movw	r7, #:lower16:.LANCHOR0
	movt	r7, #:upper16:.LANCHOR0
	mov	r9, r2
	movw	r6, #:lower16:.LANCHOR1
	sub	sp, sp, #20
	ldrb	r2, [r7, #108]	@ zero_extendqisi2
	mov	r5, r1
	mov	r10, r3
	mov	r8, r0
	cmp	r2, #18
	movne	r4, #0
	movtne	r6, #:upper16:.LANCHOR1
	beq	.L509
	cmp	r2, #17
	beq	.L510
.L495:
	cmp	r2, #16
	beq	.L511
.L499:
	mov	r2, #0
	ldrb	r1, [r6, #360]	@ zero_extendqisi2
	mov	r0, r8
	bl	set_one_cmd
	ldrb	r1, [r6, #361]	@ zero_extendqisi2
	orr	r4, r4, r0
	mov	r2, #0
	mov	r0, r8
	bl	set_one_cmd
	ldrb	ip, [r5, #3]	@ zero_extendqisi2
	orr	r4, r4, r0
	movw	r0, #:lower16:.LC123
	ldrb	r3, [r5, #2]	@ zero_extendqisi2
	ldrb	r2, [r5, #1]	@ zero_extendqisi2
	movt	r0, #:upper16:.LC123
	ldrb	r1, [r5]	@ zero_extendqisi2
	str	ip, [sp]
	bl	NAND_Print_DBG
	mov	r0, r4
.L505:
	add	sp, sp, #20
	@ sp needed
	pop	{r4, r5, r6, r7, r8, r9, r10, fp, pc}
.L511:
	ldrb	r3, [r5]	@ zero_extendqisi2
	cmp	r3, #255
	bne	.L500
	ldrb	r3, [r5, #1]	@ zero_extendqisi2
	cmp	r3, #255
	beq	.L512
.L500:
	mov	r2, #1
	str	r10, [sp, #8]
	str	r2, [sp, #4]
	mov	r3, r9
	str	r5, [sp]
	mov	r2, #0
	ldr	r1, .L514
	mov	r0, r8
	bl	set_cmd_with_nand_bus
	orr	r4, r4, r0
	b	.L499
.L512:
	ldrb	r3, [r5, #2]	@ zero_extendqisi2
	cmp	r3, #255
	bne	.L500
	ldrb	r3, [r5, #3]	@ zero_extendqisi2
	cmp	r3, #255
	bne	.L500
	ldrb	r1, [r6, #348]	@ zero_extendqisi2
	mov	r0, r8
	mov	r2, #1
	bl	set_one_cmd
	orr	r0, r4, r0
	b	.L505
.L509:
	mov	fp, #1
	movt	r6, #:upper16:.LANCHOR1
	str	r3, [sp, #8]
	mov	r2, #0
	str	r1, [sp]
	mov	r3, r9
	add	r1, r6, #340
	str	fp, [sp, #4]
	bl	set_cmd_with_nand_bus
	ldrb	r3, [r5]	@ zero_extendqisi2
	mov	r4, r0
	cmp	r3, #0
	bne	.L507
	ldrb	r3, [r5, #1]	@ zero_extendqisi2
	cmp	r3, #0
	bne	.L507
	ldrb	r3, [r5, #2]	@ zero_extendqisi2
	cmp	r3, #0
	bne	.L507
	ldrb	r3, [r5, #3]	@ zero_extendqisi2
	cmp	r3, #0
	bne	.L507
	ldr	r3, [r7, #120]
	cmp	r3, #0
	bne	.L507
.L508:
	mov	r2, fp
	ldrb	r1, [r6, #348]	@ zero_extendqisi2
	mov	r0, r8
	bl	set_one_cmd
	orr	r0, r4, r0
	b	.L505
.L507:
	ldrb	r2, [r7, #108]	@ zero_extendqisi2
	cmp	r2, #17
	bne	.L495
.L510:
	mov	fp, #1
	mov	r3, r9
	str	r10, [sp, #8]
	mov	r2, #0
	str	r5, [sp]
	mov	r0, r8
	str	fp, [sp, #4]
	ldr	r1, .L514+4
	bl	set_cmd_with_nand_bus
	ldrb	r3, [r5]	@ zero_extendqisi2
	orr	r4, r4, r0
	cmp	r3, #0
	bne	.L496
	ldrb	r3, [r5, #1]	@ zero_extendqisi2
	cmp	r3, #0
	bne	.L497
	ldrb	r3, [r5, #2]	@ zero_extendqisi2
	cmp	r3, #0
	bne	.L497
	ldrb	r3, [r5, #3]	@ zero_extendqisi2
	cmp	r3, #0
	beq	.L508
.L497:
	ldrb	r3, [r7, #108]	@ zero_extendqisi2
	cmp	r3, #16
	bne	.L499
	b	.L500
.L496:
	cmp	r3, #2
	bne	.L513
	ldrb	r2, [r5, #1]	@ zero_extendqisi2
	cmp	r2, #0
	bne	.L497
	ldrb	r3, [r5, #2]	@ zero_extendqisi2
	cmp	r3, #126
	bne	.L497
	ldrb	r3, [r5, #3]	@ zero_extendqisi2
	cmp	r3, #124
	bne	.L497
	ldrb	r1, [r6, #352]	@ zero_extendqisi2
	mov	r0, r8
	bl	set_one_cmd
	ldrb	r2, [r7, #108]	@ zero_extendqisi2
	orr	r4, r4, r0
	b	.L495
.L513:
	ldrb	r2, [r7, #108]	@ zero_extendqisi2
	b	.L495
.L515:
	.align	2
.L514:
	.word	.LANCHOR1+356
	.word	.LANCHOR1+340
	.size	m6_vender_set_param, .-m6_vender_set_param
	.align	2
	.global	m6_set_readretry
	.syntax unified
	.arm
	.type	m6_set_readretry, %function
m6_set_readretry:
	@ args = 0, pretend = 0, frame = 0
	@ frame_needed = 0, uses_anonymous_args = 0
	push	{r4, r5, r6, lr}
	movw	r5, #:lower16:.LANCHOR0
	movt	r5, #:upper16:.LANCHOR0
	ldrb	r3, [r5, #108]	@ zero_extendqisi2
	sub	r3, r3, #16
	cmp	r3, #2
	bhi	.L524
	mov	r4, r0
	bl	m6_read_retry_clock_save
	mov	r0, r4
	bl	nand_enable_chip
	ldr	r0, [r4, #248]
	bl	ndfc_disable_randomize
	ldr	r3, [r4, #176]
	cmp	r3, #0
	beq	.L529
.L518:
	ldr	r0, [r4, #248]
	bl	ndfc_is_toogle_interface
	cmp	r0, #0
	bne	.L530
	ldrb	r3, [r5, #108]	@ zero_extendqisi2
	cmp	r3, #17
	beq	.L531
.L520:
	cmp	r3, #18
	beq	.L532
	ldr	r1, .L534
	mov	r3, #4
	ldr	r0, [r4, #176]
	sub	r2, r1, #100
	add	r1, r1, r0, lsl #2
.L521:
	mov	r0, r4
	bl	m6_vender_set_param
	ldr	r3, [r5, #124]
	mov	r6, r0
	cmp	r3, #1
	beq	.L533
.L523:
	mov	r0, r4
	bl	nand_disable_chip
	ldr	r3, [r4, #248]
	ldr	r2, [r5, #112]
	ldr	r1, [r5, #116]
	ldr	r0, [r3, #8]
	bl	NAND_SetClk
	mov	r0, r6
	pop	{r4, r5, r6, pc}
.L530:
	ldr	r0, [r4, #248]
	bl	ndfc_set_legacy_interface
	mov	r3, #1
	str	r3, [r5, #124]
	ldrb	r3, [r5, #108]	@ zero_extendqisi2
	cmp	r3, #17
	bne	.L520
.L531:
	ldr	r2, [r4, #176]
	mov	r3, #5
	ldr	r1, .L534+4
	add	r0, r2, r2, lsl #2
	sub	r2, r1, #12
	add	r1, r1, r0
	b	.L521
.L529:
	mov	r0, r4
	bl	m6_vender_pre_condition
	b	.L518
.L532:
	ldr	r2, [r4, #176]
	mov	r3, #5
	ldr	r1, .L534+8
	add	r0, r2, r2, lsl #2
	sub	r2, r1, #52
	add	r1, r1, r0
	b	.L521
.L533:
	ldr	r0, [r4, #248]
	bl	ndfc_set_toogle_interface
	b	.L523
.L524:
	mvn	r0, #88
	pop	{r4, r5, r6, pc}
.L535:
	.align	2
.L534:
	.word	.LANCHOR1+472
	.word	.LANCHOR1+376
	.word	.LANCHOR1+416
	.size	m6_set_readretry, .-m6_set_readretry
	.align	2
	.global	m6_exit_readretry
	.syntax unified
	.arm
	.type	m6_exit_readretry, %function
m6_exit_readretry:
	@ args = 0, pretend = 0, frame = 0
	@ frame_needed = 0, uses_anonymous_args = 0
	push	{r4, r5, r6, lr}
	movw	r6, #:lower16:.LANCHOR0
	movt	r6, #:upper16:.LANCHOR0
	ldrb	r3, [r6, #108]	@ zero_extendqisi2
	sub	r3, r3, #16
	cmp	r3, #2
	bhi	.L541
	mov	r4, r0
	bl	nand_enable_chip
	ldr	r0, [r4, #248]
	bl	ndfc_disable_randomize
	ldr	r0, [r4, #248]
	bl	ndfc_is_toogle_interface
	cmp	r0, #0
	bne	.L548
	ldrb	r3, [r6, #108]	@ zero_extendqisi2
	cmp	r3, #17
	beq	.L542
.L550:
	cmp	r3, #18
	beq	.L543
	ldr	r2, .L551
	mov	r3, #0
	add	r1, r2, #124
.L539:
	mov	r0, r4
	bl	m6_vender_set_param
	ldr	r3, [r6, #124]
	mov	r5, r0
	cmp	r3, #1
	beq	.L549
.L540:
	mov	r0, r4
	bl	nand_disable_chip
	mov	r0, r5
	pop	{r4, r5, r6, pc}
.L548:
	ldr	r0, [r4, #248]
	bl	ndfc_set_legacy_interface
	mov	r3, #1
	str	r3, [r6, #124]
	ldrb	r3, [r6, #108]	@ zero_extendqisi2
	cmp	r3, #17
	bne	.L550
.L542:
	ldr	r2, .L551+4
	mov	r3, #5
	add	r1, r2, #47
	b	.L539
.L543:
	ldr	r2, .L551+4
	mov	r3, #5
	add	r1, r2, #102
	b	.L539
.L549:
	ldr	r0, [r4, #248]
	bl	ndfc_set_toogle_interface
	b	.L540
.L541:
	mvn	r0, #87
	pop	{r4, r5, r6, pc}
.L552:
	.align	2
.L551:
	.word	.LANCHOR1+372
	.word	.LANCHOR1+364
	.size	m6_exit_readretry, .-m6_exit_readretry
	.align	2
	.global	m6_read_page_end
	.syntax unified
	.arm
	.type	m6_read_page_end, %function
m6_read_page_end:
	@ args = 0, pretend = 0, frame = 0
	@ frame_needed = 0, uses_anonymous_args = 0
	movw	r3, #:lower16:g_nsi
	push	{r4, r5, r6, r7, r8, lr}
	movt	r3, #:upper16:g_nsi
	ldr	r1, [r0]
	sub	sp, sp, #8
	mov	r7, r0
	ldr	r0, [r3]
	bl	nci_get_from_nsi
	mov	r6, r0
	mov	r0, r7
	bl	m0_read_page_end_not_retry
	cmn	r0, #2
	mov	r5, r0
	beq	.L566
	mov	r0, r5
	add	sp, sp, #8
	@ sp needed
	pop	{r4, r5, r6, r7, r8, pc}
.L566:
	movw	r0, #:lower16:.LC124
	movw	r8, #:lower16:.LANCHOR0
	movt	r8, #:upper16:.LANCHOR0
	movt	r0, #:upper16:.LC124
	bl	NAND_Print_DBG
	ldrb	r3, [r8, #109]	@ zero_extendqisi2
	mov	r2, #1
	str	r2, [r8, #120]
	cmp	r3, #0
	beq	.L555
	mov	r4, #0
	b	.L557
.L556:
	ldrb	r3, [r8, #109]	@ zero_extendqisi2
	cmp	r3, r4
	ble	.L555
.L557:
	str	r4, [r6, #176]
	mov	r0, r6
	bl	m6_set_readretry
	subs	r5, r0, #0
	add	r4, r4, #1
	bne	.L556
	mov	r0, r7
	bl	m0_read_page_start
	mov	r5, r0
	mov	r0, r7
	bl	m0_read_page_end_not_retry
	orr	r5, r5, r0
	cmp	r5, #0
	cmpne	r5, #10
	bne	.L556
	ldr	r2, [r6, #248]
	movw	r0, #:lower16:.LC125
	ldr	lr, [r7, #8]
	movt	r0, #:upper16:.LC125
	ldr	ip, [r6, #176]
	mov	r5, #10
	ldr	r1, [r2, #8]
	ldr	r3, [r7, #4]
	ldr	r2, [r6, #20]
	str	lr, [sp]
	str	ip, [sp, #4]
	bl	NAND_Print_DBG
.L555:
	mov	r3, #0
	mov	r0, r6
	str	r3, [r6, #176]
	str	r3, [r8, #120]
	bl	m6_exit_readretry
	mov	r0, r5
	add	sp, sp, #8
	@ sp needed
	pop	{r4, r5, r6, r7, r8, pc}
	.size	m6_read_page_end, .-m6_read_page_end
	.align	2
	.global	m6_special_init
	.syntax unified
	.arm
	.type	m6_special_init, %function
m6_special_init:
	@ args = 0, pretend = 0, frame = 0
	@ frame_needed = 0, uses_anonymous_args = 0
	movw	r3, #:lower16:g_nsi
	push	{r4, r5, r6, lr}
	movt	r3, #:upper16:g_nsi
	ldr	r3, [r3]
	ldr	r4, [r3, #8]
	cmp	r4, #0
	beq	.L568
	mov	r5, #0
.L569:
	mov	r0, r4
	bl	m6_readretry_init
	ldr	r4, [r4]
	orr	r5, r5, r0
	cmp	r4, #0
	bne	.L569
	cmp	r5, #0
	beq	.L568
	movw	r1, #:lower16:.LANCHOR0
	movw	r0, #:lower16:.LC127
	movt	r1, #:upper16:.LANCHOR0
	movt	r0, #:upper16:.LC127
	ldrb	r3, [r1, #110]	@ zero_extendqisi2
	ldrb	r2, [r1, #109]	@ zero_extendqisi2
	ldrb	r1, [r1, #108]	@ zero_extendqisi2
	bl	NAND_Print
	mov	r0, r5
	pop	{r4, r5, r6, pc}
.L568:
	movw	r1, #:lower16:.LANCHOR0
	movw	ip, #:lower16:function_read_page_end
	movt	r1, #:upper16:.LANCHOR0
	movw	lr, #:lower16:m6_read_page_end
	movw	r0, #:lower16:.LC126
	ldrb	r3, [r1, #110]	@ zero_extendqisi2
	ldrb	r2, [r1, #109]	@ zero_extendqisi2
	movt	ip, #:upper16:function_read_page_end
	movt	lr, #:upper16:m6_read_page_end
	ldrb	r1, [r1, #108]	@ zero_extendqisi2
	mov	r5, #0
	movt	r0, #:upper16:.LC126
	str	lr, [ip]
	bl	NAND_Print_DBG
	mov	r0, r5
	pop	{r4, r5, r6, pc}
	.size	m6_special_init, .-m6_special_init
	.align	2
	.global	m6_special_exit
	.syntax unified
	.arm
	.type	m6_special_exit, %function
m6_special_exit:
	@ args = 0, pretend = 0, frame = 0
	@ frame_needed = 0, uses_anonymous_args = 0
	movw	r3, #:lower16:g_nsi
	push	{r4, lr}
	movt	r3, #:upper16:g_nsi
	ldr	r3, [r3]
	ldr	r3, [r3, #8]
	cmp	r3, #0
	beq	.L578
.L579:
	ldr	r3, [r3]
	cmp	r3, #0
	bne	.L579
.L578:
	movw	r0, #:lower16:.LC128
	movt	r0, #:upper16:.LC128
	bl	NAND_Print_DBG
	mov	r0, #0
	pop	{r4, pc}
	.size	m6_special_exit, .-m6_special_exit
	.align	2
	.global	m6_is_lsb_page
	.syntax unified
	.arm
	.type	m6_is_lsb_page, %function
m6_is_lsb_page:
	@ args = 0, pretend = 0, frame = 0
	@ frame_needed = 0, uses_anonymous_args = 0
	@ link register save eliminated.
	cmp	r0, #0
	beq	.L587
	movw	r3, #:lower16:g_nsi
	movt	r3, #:upper16:g_nsi
	ldr	r3, [r3]
	ldr	r3, [r3, #8]
	ldr	r3, [r3, #252]
	ldr	r3, [r3, #16]
	sub	r3, r3, #1
	cmp	r0, r3
	beq	.L588
	and	r0, r0, #1
	bx	lr
.L587:
	mov	r0, #1
	bx	lr
.L588:
	mov	r0, #0
	bx	lr
	.size	m6_is_lsb_page, .-m6_is_lsb_page
	.align	2
	.global	m7_is_lsb_page
	.syntax unified
	.arm
	.type	m7_is_lsb_page, %function
m7_is_lsb_page:
	@ args = 0, pretend = 0, frame = 0
	@ frame_needed = 0, uses_anonymous_args = 0
	@ link register save eliminated.
	b	m6_is_lsb_page
	.size	m7_is_lsb_page, .-m7_is_lsb_page
	.align	2
	.global	m5_is_lsb_page
	.syntax unified
	.arm
	.type	m5_is_lsb_page, %function
m5_is_lsb_page:
	@ args = 0, pretend = 0, frame = 0
	@ frame_needed = 0, uses_anonymous_args = 0
	@ link register save eliminated.
	b	m6_is_lsb_page
	.size	m5_is_lsb_page, .-m5_is_lsb_page
	.align	2
	.global	m1_write_page_FF
	.syntax unified
	.arm
	.type	m1_write_page_FF, %function
m1_write_page_FF:
	@ args = 0, pretend = 0, frame = 24
	@ frame_needed = 0, uses_anonymous_args = 0
	movw	r3, #:lower16:g_nsi
	push	{r4, r5, r6, r7, r8, r9, r10, fp, lr}
	movt	r3, #:upper16:g_nsi
	mov	r9, r0
	sub	sp, sp, #36
	mov	r5, r1
	ldr	r0, [r3]
	ldr	r1, [r9]
	bl	nci_get_from_nsi
	ldr	r4, [r0, #248]
	mov	r7, r0
	ldr	r2, [r0, #20]
	ldr	ip, [r9, #4]
	ldr	r3, [r4, #12]
	add	r1, r4, #28
	str	r1, [sp, #12]
	ldr	lr, [r0, #24]
	cmp	r2, r3
	bcs	.L593
	cmp	ip, lr
	bcs	.L593
	bl	nand_read_chip_status_ready
	mov	r0, r7
	bl	nand_enable_chip
	ldr	r0, [r7, #248]
	bl	ndfc_disable_randomize
	ldr	r0, [r7, #248]
	bl	ndfc_disable_ecc
	add	r0, r4, #28
	bl	ndfc_clean_cmd_seq
	cmp	r5, #8
	beq	.L602
	cmp	r5, #16
	moveq	r3, #640
	movne	r3, #0
	str	r3, [sp, #28]
	moveq	r3, #18
	movne	r3, #0
	str	r3, [sp, #16]
.L596:
	add	r3, r4, #56
	mov	r8, #0
	str	r3, [sp, #20]
	mov	r6, r8
	ldr	r3, [sp, #16]
	sub	r3, r3, #1
	str	r3, [sp, #24]
	b	.L600
.L599:
	ldr	lr, [r9, #16]
	mov	fp, #0
	str	fp, [r4, #28]
	mov	fp, #133
	str	fp, [r4, #44]
	add	r5, lr, r5
	mov	lr, #1024
	str	ip, [r4, #40]
	str	ip, [r4, #48]
	str	ip, [r4, #88]
	str	ip, [r4, #80]
	str	ip, [r4, #84]
	str	r5, [r4, #96]
	str	lr, [r4, #92]
	str	ip, [r4, #76]
	str	r10, [r4, #72]
.L609:
	ldr	ip, [sp, #20]
	str	ip, [sp]
	bl	fill_cmd_addr
	ldr	r1, [sp, #12]
	ldr	r0, [r7, #248]
	bl	ndfc_execute_cmd
.L598:
	ldr	r3, [sp, #16]
	add	r6, r6, #1
	cmp	r3, r6
	beq	.L610
.L600:
	cmp	r6, #0
	mov	r10, #2
	mov	ip, #1
	mov	r3, #0
	mov	r2, r8
	mov	r1, r10
	lsl	r5, r6, #10
	beq	.L611
	ldr	r0, [sp, #24]
	cmp	r0, r6
	mov	r0, r5
	bne	.L599
	ldr	r3, [r9, #16]
	mov	r1, #0
	mov	r2, #1
	mov	ip, #2
	str	r1, [r4, #28]
	mov	r1, #133
	add	r5, r3, r5
	ldr	r3, [sp, #28]
	str	r1, [r4, #44]
	mov	r1, ip
	str	r2, [r4, #40]
	str	r3, [r4, #92]
	mov	r3, #0
	str	r2, [r4, #48]
	str	r2, [r4, #88]
	str	r2, [r4, #80]
	str	r2, [r4, #84]
	str	r2, [r4, #76]
	mov	r2, r8
	str	r5, [r4, #96]
	str	ip, [r4, #72]
	b	.L609
.L610:
	mov	r3, #1
	mov	r2, #16
	mov	r0, #0
	str	r2, [r4, #44]
	str	r0, [r4, #28]
	str	r3, [r4, #40]
	str	r3, [r4, #48]
	str	r3, [r4, #112]
	ldr	r1, [sp, #12]
	ldr	r0, [r7, #248]
	bl	ndfc_execute_cmd
	mov	r0, r7
	bl	nand_read_chip_status_ready
	subs	r4, r0, #0
	bne	.L612
.L601:
	mov	r0, r7
	bl	nand_disable_chip
	mov	r0, r4
	add	sp, sp, #36
	@ sp needed
	pop	{r4, r5, r6, r7, r8, r9, r10, fp, pc}
.L612:
	movw	r0, #:lower16:.LC130
	movt	r0, #:upper16:.LC130
	bl	NAND_Print
	b	.L601
.L602:
	mov	r3, #832
	str	r3, [sp, #28]
	mov	r3, #9
	str	r3, [sp, #16]
	b	.L596
.L593:
	movw	r0, #:lower16:.LC129
	ldr	r1, [r4, #8]
	movt	r0, #:upper16:.LC129
	stm	sp, {ip, lr}
	bl	NAND_Print
	mvn	r0, #107
	add	sp, sp, #36
	@ sp needed
	pop	{r4, r5, r6, r7, r8, r9, r10, fp, pc}
.L611:
	ldr	r0, [r9, #16]
	mov	r1, #128
	mov	r2, #1024
	str	r1, [r4, #44]
	str	ip, [r4, #40]
	str	r0, [r4, #96]
	str	ip, [r4, #48]
	str	ip, [r4, #88]
	str	ip, [r4, #80]
	str	ip, [r4, #84]
	str	ip, [r4, #76]
	str	r2, [r4, #92]
	str	r6, [r4, #28]
	ldmib	r9, {r1, r2}
	ldr	r0, [r7, #36]
	bl	get_row_addr
	ldr	r1, [sp, #20]
	mov	r8, r0
	mov	r3, #5
	mov	r0, r5
	str	r3, [r4, #72]
	mov	r2, r8
	str	r1, [sp]
	mov	r3, #3
	mov	r1, r10
	bl	fill_cmd_addr
	ldr	r1, [sp, #12]
	ldr	r0, [r7, #248]
	bl	ndfc_execute_cmd
	b	.L598
	.size	m1_write_page_FF, .-m1_write_page_FF
	.align	2
	.global	m1_vender_get_param
	.syntax unified
	.arm
	.type	m1_vender_get_param, %function
m1_vender_get_param:
	@ args = 0, pretend = 0, frame = 8
	@ frame_needed = 0, uses_anonymous_args = 0
	push	{r4, r5, r6, r7, r8, lr}
	mov	ip, #55
	sub	sp, sp, #16
	mov	r7, r0
	mov	r6, r3
	mov	r5, r1
	mov	r4, r2
	strb	ip, [sp, #15]
	bl	nand_enable_chip
	ldr	r0, [r7, #248]
	bl	ndfc_disable_randomize
	cmp	r6, #0
	beq	.L616
	add	r6, r4, r6
	mov	r8, #1
.L615:
	mov	r3, r5
	mov	r2, r4
	str	r8, [sp]
	add	r1, sp, #15
	add	r4, r4, #1
	mov	r0, r7
	bl	get_data_with_nand_bus_one_cmd
	cmp	r4, r6
	add	r5, r5, #1
	bne	.L615
.L616:
	mov	r0, r7
	bl	nand_disable_chip
	mov	r0, #0
	add	sp, sp, #16
	@ sp needed
	pop	{r4, r5, r6, r7, r8, pc}
	.size	m1_vender_get_param, .-m1_vender_get_param
	.align	2
	.global	m3_getdefaultparam
	.syntax unified
	.arm
	.type	m3_getdefaultparam, %function
m3_getdefaultparam:
	@ args = 0, pretend = 0, frame = 0
	@ frame_needed = 0, uses_anonymous_args = 0
	push	{r4, r5, r6, lr}
	movw	r6, #:lower16:.LANCHOR0
	movt	r6, #:upper16:.LANCHOR0
	mov	r5, r1
	add	r2, r6, #128
	add	r1, r0, #48
	ldrb	r3, [r6, #80]	@ zero_extendqisi2
	mov	r4, r0
	bl	m1_vender_get_param
	ldrb	r3, [r6, #80]	@ zero_extendqisi2
	cmp	r3, #0
	popeq	{r4, r5, r6, pc}
	add	r2, r4, #47
	sub	r1, r5, #1
	mov	r3, #0
.L622:
	ldrb	ip, [r2, #1]!	@ zero_extendqisi2
	add	r3, r3, #1
	strb	ip, [r1, #1]!
	ldrb	ip, [r6, #80]	@ zero_extendqisi2
	cmp	ip, r3
	bgt	.L622
	pop	{r4, r5, r6, pc}
	.size	m3_getdefaultparam, .-m3_getdefaultparam
	.align	2
	.global	m3_vender_get_param
	.syntax unified
	.arm
	.type	m3_vender_get_param, %function
m3_vender_get_param:
	@ args = 0, pretend = 0, frame = 0
	@ frame_needed = 0, uses_anonymous_args = 0
	@ link register save eliminated.
	b	m1_vender_get_param
	.size	m3_vender_get_param, .-m3_vender_get_param
	.align	2
	.global	m1_vender_set_param
	.syntax unified
	.arm
	.type	m1_vender_set_param, %function
m1_vender_set_param:
	@ args = 0, pretend = 0, frame = 8
	@ frame_needed = 0, uses_anonymous_args = 0
	push	{r4, r5, r6, r7, r8, r9, lr}
	mov	ip, #54
	sub	sp, sp, #28
	mov	r6, r0
	mov	r8, r3
	mov	r9, r1
	mov	r4, r2
	strb	ip, [sp, #23]
	bl	nand_enable_chip
	ldr	r0, [r6, #248]
	bl	ndfc_disable_randomize
	cmp	r8, #0
	beq	.L631
	mov	r5, r9
	add	r8, r4, r8
	mov	r7, #1
.L630:
	mov	r3, r4
	mov	r2, #0
	str	r5, [sp]
	add	r1, sp, #23
	str	r7, [sp, #8]
	mov	r0, r6
	str	r7, [sp, #4]
	add	r4, r4, #1
	bl	set_cmd_with_nand_bus
	mov	r2, #0
	mov	r1, #22
	mov	r0, r6
	add	r5, r5, #1
	bl	set_one_cmd
	cmp	r4, r8
	bne	.L630
.L631:
	mov	r0, r6
	bl	nand_disable_chip
	ldrb	ip, [r9, #3]	@ zero_extendqisi2
	movw	r0, #:lower16:.LC103
	ldrb	r3, [r9, #2]	@ zero_extendqisi2
	movt	r0, #:upper16:.LC103
	ldrb	r2, [r9, #1]	@ zero_extendqisi2
	ldrb	r1, [r9]	@ zero_extendqisi2
	str	ip, [sp]
	bl	NAND_Print_DBG
	mov	r0, #0
	add	sp, sp, #28
	@ sp needed
	pop	{r4, r5, r6, r7, r8, r9, pc}
	.size	m1_vender_set_param, .-m1_vender_set_param
	.align	2
	.global	m3_set_readretry
	.syntax unified
	.arm
	.type	m3_set_readretry, %function
m3_set_readretry:
	@ args = 0, pretend = 0, frame = 8
	@ frame_needed = 0, uses_anonymous_args = 0
	push	{r4, r5, r6, r7, r8, lr}
	movw	r6, #:lower16:.LANCHOR0
	movt	r6, #:upper16:.LANCHOR0
	ldr	r7, [r0, #176]
	sub	sp, sp, #8
	ldrb	r3, [r6, #79]	@ zero_extendqisi2
	cmp	r7, r3
	bhi	.L644
	ldrb	r3, [r6, #80]	@ zero_extendqisi2
	cmp	r3, #0
	addeq	r5, sp, #4
	beq	.L637
	add	ip, r6, #132
	add	r5, sp, #4
	add	r4, r3, #47
	add	ip, ip, r7, lsl #3
	mov	lr, r5
	add	r4, r0, r4
	add	r1, r0, #47
.L638:
	ldrb	r2, [r1, #1]!	@ zero_extendqisi2
	ldrsh	r8, [ip], #2
	cmp	r1, r4
	add	r2, r2, r8
	sxth	r2, r2
	usat	r2, #8, r2
	strb	r2, [lr], #1
	bne	.L638
.L637:
	sub	r2, r7, #2
	sub	r7, r7, #5
	cmp	r2, #4
	mov	r1, r5
	movls	r2, #0
	strbls	r2, [sp, #4]
	cmp	r7, #1
	movls	r2, #0
	strbls	r2, [sp, #5]
	ldr	r2, .L651
	bl	m1_vender_set_param
	mov	r8, r0
	movw	r0, #:lower16:.LC131
	movt	r0, #:upper16:.LC131
	bl	NAND_Print_DBG
	ldrb	r3, [r6, #80]	@ zero_extendqisi2
	cmp	r3, #0
	movwne	r7, #:lower16:.LC133
	movne	r4, #0
	movtne	r7, #:upper16:.LC133
	beq	.L643
.L642:
	ldrb	r1, [r5], #1	@ zero_extendqisi2
	mov	r0, r7
	bl	NAND_Print_DBG
	ldrb	r3, [r6, #80]	@ zero_extendqisi2
	add	r4, r4, #1
	cmp	r3, r4
	bhi	.L642
.L643:
	movw	r0, #:lower16:.LC132
	movt	r0, #:upper16:.LC132
	bl	NAND_Print_DBG
	mov	r0, r8
.L636:
	add	sp, sp, #8
	@ sp needed
	pop	{r4, r5, r6, r7, r8, pc}
.L644:
	mvn	r0, #52
	b	.L636
.L652:
	.align	2
.L651:
	.word	.LANCHOR0+128
	.size	m3_set_readretry, .-m3_set_readretry
	.align	2
	.global	m3_read_page_end
	.syntax unified
	.arm
	.type	m3_read_page_end, %function
m3_read_page_end:
	@ args = 0, pretend = 0, frame = 0
	@ frame_needed = 0, uses_anonymous_args = 0
	movw	r3, #:lower16:g_nsi
	push	{r4, r5, r6, r7, r8, r9, lr}
	movt	r3, #:upper16:g_nsi
	ldr	r1, [r0]
	sub	sp, sp, #12
	mov	r6, r0
	ldr	r0, [r3]
	bl	nci_get_from_nsi
	mov	r5, r0
	mov	r0, r6
	bl	m0_read_page_end_not_retry
	cmn	r0, #2
	mov	r4, r0
	beq	.L666
	mov	r0, r4
	add	sp, sp, #12
	@ sp needed
	pop	{r4, r5, r6, r7, r8, r9, pc}
.L666:
	movw	r0, #:lower16:.LC134
	movw	r8, #:lower16:.LANCHOR0
	movt	r0, #:upper16:.LC134
	movt	r8, #:upper16:.LANCHOR0
	bl	NAND_Print_DBG
	ldrb	r2, [r8, #79]	@ zero_extendqisi2
	cmp	r2, #0
	beq	.L655
	mov	r7, #0
	mov	r9, r7
	b	.L660
.L658:
	bl	m0_read_page_start
	mov	r4, r0
	mov	r0, r6
	bl	m0_read_page_end_not_retry
	orr	r4, r4, r0
	cmp	r4, #0
	cmpne	r4, #10
	beq	.L667
	ldrb	r2, [r8, #79]	@ zero_extendqisi2
	cmp	r2, r7
	ble	.L655
.L660:
	ldr	r3, [r5, #176]
	mov	r0, r5
	add	r7, r7, #1
	add	r3, r3, #1
	cmp	r3, r2
	movhi	r3, r9
	str	r3, [r5, #176]
	bl	m3_set_readretry
	subs	r4, r0, #0
	mov	r0, r6
	beq	.L658
	mov	r3, #0
	mov	r0, r5
	str	r3, [r5, #176]
	bl	m3_set_readretry
.L655:
	mov	r3, #0
	mov	r0, r5
	str	r3, [r5, #176]
	bl	m3_set_readretry
	mov	r0, r4
	add	sp, sp, #12
	@ sp needed
	pop	{r4, r5, r6, r7, r8, r9, pc}
.L667:
	ldr	r2, [r5, #248]
	movw	r0, #:lower16:.LC135
	ldr	lr, [r6, #8]
	movt	r0, #:upper16:.LC135
	ldr	ip, [r5, #176]
	mov	r4, #10
	ldr	r1, [r2, #8]
	ldr	r3, [r6, #4]
	ldr	r2, [r5, #20]
	str	lr, [sp]
	str	ip, [sp, #4]
	bl	NAND_Print_DBG
	b	.L655
	.size	m3_read_page_end, .-m3_read_page_end
	.align	2
	.global	m3_setdefaultparam
	.syntax unified
	.arm
	.type	m3_setdefaultparam, %function
m3_setdefaultparam:
	@ args = 0, pretend = 0, frame = 8
	@ frame_needed = 0, uses_anonymous_args = 0
	push	{r4, r5, r6, r7, r8, lr}
	movw	r6, #:lower16:.LANCHOR0
	movt	r6, #:upper16:.LANCHOR0
	sub	sp, sp, #8
	ldrb	r3, [r6, #80]	@ zero_extendqisi2
	cmp	r3, #0
	addne	lr, r3, #47
	addne	r2, r0, #47
	addne	lr, r0, lr
	subne	r1, sp, #1
	beq	.L673
.L672:
	ldrb	ip, [r2, #1]!	@ zero_extendqisi2
	cmp	r2, lr
	strb	ip, [r1, #1]!
	bne	.L672
.L673:
	ldr	r2, .L679
	mov	r1, sp
	bl	m1_vender_set_param
	mov	r8, r0
	movw	r0, #:lower16:.LC136
	movt	r0, #:upper16:.LC136
	bl	NAND_Print_DBG
	ldrb	r3, [r6, #80]	@ zero_extendqisi2
	cmp	r3, #0
	movwne	r7, #:lower16:.LC137
	subne	r5, sp, #1
	movtne	r7, #:upper16:.LC137
	movne	r4, #0
	beq	.L671
.L674:
	ldrb	r1, [r5, #1]!	@ zero_extendqisi2
	mov	r0, r7
	bl	NAND_Print_DBG
	ldrb	r3, [r6, #80]	@ zero_extendqisi2
	add	r4, r4, #1
	cmp	r3, r4
	bgt	.L674
.L671:
	movw	r0, #:lower16:.LC132
	movt	r0, #:upper16:.LC132
	bl	NAND_Print_DBG
	mov	r0, r8
	add	sp, sp, #8
	@ sp needed
	pop	{r4, r5, r6, r7, r8, pc}
.L680:
	.align	2
.L679:
	.word	.LANCHOR0+128
	.size	m3_setdefaultparam, .-m3_setdefaultparam
	.align	2
	.global	m3_get_default_param
	.syntax unified
	.arm
	.type	m3_get_default_param, %function
m3_get_default_param:
	@ args = 0, pretend = 0, frame = 8
	@ frame_needed = 0, uses_anonymous_args = 0
	push	{r4, r5, lr}
	sub	sp, sp, #28
	mov	r4, r0
	add	r1, sp, #20
	bl	m3_getdefaultparam
	ldr	r1, [r4, #248]
	movw	r0, #:lower16:.LC138
	ldrb	lr, [sp, #22]	@ zero_extendqisi2
	movt	r0, #:upper16:.LC138
	ldrb	ip, [sp, #21]	@ zero_extendqisi2
	ldrb	r5, [sp, #23]	@ zero_extendqisi2
	ldr	r2, [r4, #20]
	ldr	r1, [r1, #8]
	ldrb	r3, [sp, #20]	@ zero_extendqisi2
	stm	sp, {ip, lr}
	str	r5, [sp, #8]
	bl	NAND_Print_DBG
	mov	r0, r4
	bl	m3_setdefaultparam
	mov	r0, #0
	add	sp, sp, #28
	@ sp needed
	pop	{r4, r5, pc}
	.size	m3_get_default_param, .-m3_get_default_param
	.align	2
	.global	m3_readretry_init
	.syntax unified
	.arm
	.type	m3_readretry_init, %function
m3_readretry_init:
	@ args = 0, pretend = 0, frame = 0
	@ frame_needed = 0, uses_anonymous_args = 0
	ldr	r3, [r0, #252]
	push	{r4, r5, r6, r7, r8, r9, r10, lr}
	movw	r6, #:lower16:.LANCHOR0
	movt	r6, #:upper16:.LANCHOR0
	ldr	r4, [r3, #40]
	ubfx	r1, r4, #16, #8
	strb	r4, [r6, #80]
	lsr	r3, r4, #8
	cmp	r1, #0
	strb	r1, [r6, #78]
	strb	r3, [r6, #79]
	bne	.L684
	uxtb	r3, r3
	uxtb	r5, r4
	ldr	r4, .L701
	add	r7, r3, #1
	mvn	r3, #82
	strb	r3, [r6, #129]
	mvn	r3, #81
	strb	r3, [r6, #130]
	mvn	r2, #83
	mvn	r3, #80
	lsl	r8, r5, #1
	strb	r2, [r6, #128]
	mov	lr, r1
	strb	r3, [r6, #131]
	add	r6, r6, #132
.L685:
	cmp	r5, #0
	addne	ip, r4, r8
	movne	r2, r6
	movne	r3, r4
	beq	.L689
.L686:
	ldrsh	r1, [r3], #2
	cmp	r3, ip
	strh	r1, [r2], #2	@ movhi
	bne	.L686
.L689:
	add	lr, lr, #1
	add	r4, r4, #8
	cmp	lr, r7
	add	r6, r6, #8
	bne	.L685
.L687:
	mov	ip, #0
	add	r3, r0, #47
	mov	r1, ip
	add	r2, r0, #175
	str	ip, [r0, #176]
.L696:
	strb	r1, [r3, #1]!
	cmp	r3, r2
	bne	.L696
	bl	m3_get_default_param
	mov	r0, #0
	pop	{r4, r5, r6, r7, r8, r9, r10, pc}
.L684:
	cmp	r1, #1
	bne	.L690
	uxtb	r4, r4
	ldr	lr, .L701+4
	uxtb	r3, r3
	mvn	r2, #88
	lsl	r9, r4, #1
	add	r7, r6, #132
	mov	r5, #0
	strb	r2, [r6, #128]
	mvn	r1, #82
	add	r8, r3, #1
	mvn	r2, #81
	mvn	r3, #80
	strb	r1, [r6, #129]
	strb	r2, [r6, #130]
	strb	r3, [r6, #131]
.L691:
	cmp	r4, #0
	addne	ip, lr, r9
	movne	r2, r7
	movne	r3, lr
	beq	.L694
.L692:
	ldrsh	r1, [r3], #2
	cmp	r3, ip
	strh	r1, [r2], #2	@ movhi
	bne	.L692
.L694:
	add	r5, r5, #1
	add	lr, lr, #8
	cmp	r5, r8
	add	r7, r7, #8
	bne	.L691
	b	.L687
.L690:
	movw	r0, #:lower16:.LC139
	movt	r0, #:upper16:.LC139
	bl	NAND_Print
	mvn	r0, #53
	pop	{r4, r5, r6, r7, r8, r9, r10, pc}
.L702:
	.align	2
.L701:
	.word	.LANCHOR2+536
	.word	.LANCHOR2+592
	.size	m3_readretry_init, .-m3_readretry_init
	.align	2
	.global	m3_special_init
	.syntax unified
	.arm
	.type	m3_special_init, %function
m3_special_init:
	@ args = 0, pretend = 0, frame = 0
	@ frame_needed = 0, uses_anonymous_args = 0
	movw	r3, #:lower16:g_nsi
	push	{r4, r5, r6, lr}
	movt	r3, #:upper16:g_nsi
	ldr	r3, [r3]
	ldr	r4, [r3, #8]
	cmp	r4, #0
	beq	.L704
	mov	r5, #0
.L705:
	mov	r0, r4
	bl	m3_readretry_init
	ldr	r4, [r4]
	orr	r5, r5, r0
	cmp	r4, #0
	bne	.L705
	cmp	r5, #0
	beq	.L704
	movw	r1, #:lower16:.LANCHOR0
	movw	r0, #:lower16:.LC141
	movt	r1, #:upper16:.LANCHOR0
	movt	r0, #:upper16:.LC141
	ldrb	r3, [r1, #80]	@ zero_extendqisi2
	ldrb	r2, [r1, #79]	@ zero_extendqisi2
	ldrb	r1, [r1, #78]	@ zero_extendqisi2
	bl	NAND_Print
	mov	r0, r5
	pop	{r4, r5, r6, pc}
.L704:
	movw	r1, #:lower16:.LANCHOR0
	movw	ip, #:lower16:function_read_page_end
	movt	r1, #:upper16:.LANCHOR0
	movw	lr, #:lower16:m3_read_page_end
	movw	r0, #:lower16:.LC140
	ldrb	r3, [r1, #80]	@ zero_extendqisi2
	ldrb	r2, [r1, #79]	@ zero_extendqisi2
	movt	ip, #:upper16:function_read_page_end
	movt	lr, #:upper16:m3_read_page_end
	ldrb	r1, [r1, #78]	@ zero_extendqisi2
	mov	r5, #0
	movt	r0, #:upper16:.LC140
	str	lr, [ip]
	bl	NAND_Print_DBG
	mov	r0, r5
	pop	{r4, r5, r6, pc}
	.size	m3_special_init, .-m3_special_init
	.align	2
	.global	m3_readretry_exit
	.syntax unified
	.arm
	.type	m3_readretry_exit, %function
m3_readretry_exit:
	@ args = 0, pretend = 0, frame = 0
	@ frame_needed = 0, uses_anonymous_args = 0
	push	{r4, lr}
	mov	r4, r0
	movw	r0, #:lower16:.LC142
	movt	r0, #:upper16:.LC142
	bl	NAND_Print_DBG
	mov	r0, r4
	bl	m3_setdefaultparam
	mov	r0, #0
	str	r0, [r4, #176]
	pop	{r4, pc}
	.size	m3_readretry_exit, .-m3_readretry_exit
	.align	2
	.global	m3_special_exit
	.syntax unified
	.arm
	.type	m3_special_exit, %function
m3_special_exit:
	@ args = 0, pretend = 0, frame = 0
	@ frame_needed = 0, uses_anonymous_args = 0
	movw	r3, #:lower16:g_nsi
	push	{r4, r5, r6, lr}
	movt	r3, #:upper16:g_nsi
	ldr	r3, [r3]
	ldr	r4, [r3, #8]
	cmp	r4, #0
	beq	.L718
	movw	r5, #:lower16:.LC142
	mov	r6, #0
	movt	r5, #:upper16:.LC142
.L717:
	mov	r0, r5
	bl	NAND_Print_DBG
	mov	r0, r4
	bl	m3_setdefaultparam
	str	r6, [r4, #176]
	ldr	r4, [r4]
	cmp	r4, #0
	bne	.L717
.L718:
	movw	r0, #:lower16:.LC143
	movt	r0, #:upper16:.LC143
	bl	NAND_Print_DBG
	mov	r0, #0
	pop	{r4, r5, r6, pc}
	.size	m3_special_exit, .-m3_special_exit
	.align	2
	.global	m3_lsb_disable
	.syntax unified
	.arm
	.type	m3_lsb_disable, %function
m3_lsb_disable:
	@ args = 0, pretend = 0, frame = 0
	@ frame_needed = 0, uses_anonymous_args = 0
	movw	r1, #:lower16:.LANCHOR0
	push	{r4, lr}
	movt	r1, #:upper16:.LANCHOR0
	add	r2, r1, #84
	add	r1, r1, #188
	ldrb	r3, [r1, #-107]	@ zero_extendqisi2
	bl	m1_vender_set_param
	mov	r0, #0
	pop	{r4, pc}
	.size	m3_lsb_disable, .-m3_lsb_disable
	.align	2
	.global	m3_lsb_enable
	.syntax unified
	.arm
	.type	m3_lsb_enable, %function
m3_lsb_enable:
	@ args = 0, pretend = 0, frame = 8
	@ frame_needed = 0, uses_anonymous_args = 0
	push	{r4, r5, r6, lr}
	movw	r5, #:lower16:.LANCHOR0
	movt	r5, #:upper16:.LANCHOR0
	sub	sp, sp, #8
	add	r4, r5, #188
	add	r2, r5, #84
	ldrb	r3, [r5, #81]	@ zero_extendqisi2
	mov	r1, r4
	mov	r6, r0
	bl	m1_vender_get_param
	ldrb	r3, [r5, #81]	@ zero_extendqisi2
	cmp	r3, #0
	moveq	r1, sp
	beq	.L725
	add	ip, r5, #92
	mov	r0, r4
	mov	r1, sp
	add	r5, r4, r3
	mov	lr, sp
.L726:
	ldrb	r2, [r0], #1	@ zero_extendqisi2
	ldrb	r4, [ip], #1	@ zero_extendqisi2
	cmp	r0, r5
	add	r2, r2, r4
	strb	r2, [lr], #1
	bne	.L726
.L725:
	mov	r0, r6
	ldr	r2, .L732
	bl	m1_vender_set_param
	mov	r0, #0
	add	sp, sp, #8
	@ sp needed
	pop	{r4, r5, r6, pc}
.L733:
	.align	2
.L732:
	.word	.LANCHOR0+84
	.size	m3_lsb_enable, .-m3_lsb_enable
	.align	2
	.global	m3_vender_set_param
	.syntax unified
	.arm
	.type	m3_vender_set_param, %function
m3_vender_set_param:
	@ args = 0, pretend = 0, frame = 0
	@ frame_needed = 0, uses_anonymous_args = 0
	@ link register save eliminated.
	b	m1_vender_set_param
	.size	m3_vender_set_param, .-m3_vender_set_param
	.align	2
	.global	m1_major_check_byte
	.syntax unified
	.arm
	.type	m1_major_check_byte, %function
m1_major_check_byte:
	@ args = 8, pretend = 0, frame = 16
	@ frame_needed = 0, uses_anonymous_args = 0
	push	{r4, r5, r6, r7, r8, r9, r10, fp, lr}
	sub	sp, sp, #20
	ldr	r6, [sp, #60]
	mov	r7, r2
	str	r0, [sp, #12]
	cmp	r2, r6, lsr #1
	bcc	.L761
	mov	r4, #0
	mov	r8, r3
	movw	r2, #:lower16:.LC146
	movw	r3, #:lower16:.LC145
	mov	r10, r1
	mov	r9, r4
	mov	r5, r4
	mov	fp, #1
	movt	r3, #:upper16:.LC145
	movt	r2, #:upper16:.LC146
	str	r3, [sp, #4]
	str	r2, [sp, #8]
.L749:
	cmp	r6, #0
	beq	.L754
	mov	r3, #0
	lsl	ip, fp, r5
	mov	r2, r3
	mov	r1, r8
	add	lr, r8, r6
.L740:
	ldrb	r0, [r1], #1	@ zero_extendqisi2
	tst	r0, ip
	addne	r2, r2, #1
	addeq	r3, r3, #1
	cmp	lr, r1
	bne	.L740
	cmp	r2, r7
	bls	.L762
.L747:
	orr	r4, r4, ip
	uxtb	r4, r4
.L742:
	add	r9, r9, #1
.L748:
	add	r5, r5, #1
	cmp	r5, #8
	bne	.L749
	cmp	r9, #8
	ldreq	r3, [sp, #12]
	moveq	r0, #0
	ldrne	r2, [sp, #12]
	mvnne	r0, #79
	mvnne	r3, #0
	strbeq	r4, [r3]
	strbne	r3, [r2]
.L737:
	add	sp, sp, #20
	@ sp needed
	pop	{r4, r5, r6, r7, r8, r9, r10, fp, pc}
.L762:
	cmp	r3, r7
	bhi	.L742
.L751:
	cmp	r10, #1
	bne	.L743
	cmp	r6, #0
	beq	.L753
	ldr	r1, [sp, #56]
	mov	r3, #0
	lsl	ip, r10, r5
	mov	r2, r3
	add	lr, r1, r6
.L746:
	ldrb	r0, [r1], #1	@ zero_extendqisi2
	tst	r0, ip
	addne	r3, r3, #1
	addeq	r2, r2, #1
	cmp	lr, r1
	bne	.L746
	cmp	r2, r7
	bhi	.L747
	cmp	r3, r7
	bhi	.L742
.L743:
	mov	r1, r5
	ldr	r0, [sp, #4]
	bl	NAND_Print
	mov	r1, r5
	ldr	r0, [sp, #8]
	bl	NAND_Print
	b	.L748
.L754:
	mov	r2, r6
	mov	r3, r6
	b	.L751
.L753:
	mov	r3, r6
	mov	r2, r6
	b	.L743
.L761:
	movw	r0, #:lower16:.LC144
	mov	r2, r6
	mov	r1, r7
	movt	r0, #:upper16:.LC144
	bl	NAND_Print
	ldr	r2, [sp, #12]
	mvn	r3, #0
	mvn	r0, #106
	strb	r3, [r2]
	b	.L737
	.size	m1_major_check_byte, .-m1_major_check_byte
	.align	2
	.global	m1_get_read_retry_cfg
	.syntax unified
	.arm
	.type	m1_get_read_retry_cfg, %function
m1_get_read_retry_cfg:
	@ args = 0, pretend = 0, frame = 64
	@ frame_needed = 0, uses_anonymous_args = 0
	push	{r4, r5, r6, r7, r8, r9, r10, fp, lr}
	sub	sp, sp, #76
	mov	r6, r0
	mov	fp, r1
	mov	r5, r2
	mov	r1, #0
	mov	r2, #32
	add	r0, sp, #8
	add	r8, sp, #40
	mov	r7, r3
	bl	memset
	mov	r2, #32
	mov	r0, r8
	mov	r1, #0
	add	r4, r7, #7
	bl	memset
	sub	r3, r7, #1
	add	r2, sp, #7
.L764:
	ldrb	r1, [r3, #1]!	@ zero_extendqisi2
	cmp	r3, r4
	strb	r1, [r2, #1]!
	bne	.L764
	mov	r3, #8
	str	r8, [sp]
	str	r3, [sp, #4]
	mov	r2, #4
	add	r3, sp, r3
	mov	r1, #0
	mov	r0, r6
	bl	m1_major_check_byte
	subs	r10, r0, #0
	blt	.L784
	movw	r0, #:lower16:.LC148
	ldrb	r1, [r6]	@ zero_extendqisi2
	movt	r0, #:upper16:.LC148
	bl	NAND_Print_DBG
	add	r1, r7, #15
	add	r3, sp, #7
.L767:
	ldrb	r2, [r4, #1]!	@ zero_extendqisi2
	cmp	r1, r4
	strb	r2, [r3, #1]!
	bne	.L767
	mov	r3, #8
	str	r8, [sp]
	str	r3, [sp, #4]
	mov	r2, #4
	add	r3, sp, r3
	mov	r1, #0
	mov	r0, fp
	bl	m1_major_check_byte
	subs	r10, r0, #0
	blt	.L785
	movw	r0, #:lower16:.LC150
	ldrb	r1, [fp]	@ zero_extendqisi2
	movt	r0, #:upper16:.LC150
	bl	NAND_Print_DBG
	ldrb	r1, [r6]	@ zero_extendqisi2
	ldrb	r2, [fp]	@ zero_extendqisi2
	cmp	r1, #8
	bne	.L770
	cmp	r2, #4
	moveq	r9, r1
	moveq	r6, #0
	addeq	r4, sp, #15
	bne	.L770
.L775:
	add	r3, r7, r6
	add	r1, sp, #39
	add	r2, sp, #7
.L772:
	ldrb	ip, [r3, #16]	@ zero_extendqisi2
	add	r3, r3, #64
	ldrb	r0, [r3, #-16]	@ zero_extendqisi2
	strb	ip, [r2, #1]!
	cmp	r4, r2
	strb	r0, [r1, #1]!
	bne	.L772
	str	r9, [sp, #4]
	add	r3, sp, #8
	str	r8, [sp]
	mov	r2, #4
	mov	r1, #1
	add	r0, r5, r6
	bl	m1_major_check_byte
	subs	r10, r0, #0
	blt	.L786
	add	r6, r6, #1
	cmp	r6, #32
	bne	.L775
	mov	r10, #0
.L774:
	movw	r7, #:lower16:.LC153
	movw	r6, #:lower16:.LC132
	sub	r5, r5, #1
	movt	r7, #:upper16:.LC153
	movt	r6, #:upper16:.LC132
	mov	r4, #0
.L776:
	add	r4, r4, #1
	ldrb	r1, [r5, #1]!	@ zero_extendqisi2
	mov	r0, r7
	bl	NAND_Print_DBG
	cmp	r4, #32
	mov	r0, r6
	beq	.L787
	tst	r4, #7
	bne	.L776
	bl	NAND_Print_DBG
	b	.L776
.L787:
	movw	r0, #:lower16:.LC132
	movt	r0, #:upper16:.LC132
	bl	NAND_Print_DBG
	mov	r0, r10
.L766:
	add	sp, sp, #76
	@ sp needed
	pop	{r4, r5, r6, r7, r8, r9, r10, fp, pc}
.L786:
	movw	r0, #:lower16:.LC152
	mov	r1, r6
	movt	r0, #:upper16:.LC152
	bl	NAND_Print
	b	.L774
.L784:
	movw	r0, #:lower16:.LC147
	movt	r0, #:upper16:.LC147
	bl	NAND_Print
	mov	r0, r10
	add	sp, sp, #76
	@ sp needed
	pop	{r4, r5, r6, r7, r8, r9, r10, fp, pc}
.L785:
	movw	r0, #:lower16:.LC149
	movt	r0, #:upper16:.LC149
	bl	NAND_Print
	mov	r0, r10
	add	sp, sp, #76
	@ sp needed
	pop	{r4, r5, r6, r7, r8, r9, r10, fp, pc}
.L770:
	movw	r0, #:lower16:.LC151
	movt	r0, #:upper16:.LC151
	bl	NAND_Print
	mvn	r0, #80
	b	.L766
	.size	m1_get_read_retry_cfg, .-m1_get_read_retry_cfg
	.align	2
	.global	m1_read_otp_info_hynix
	.syntax unified
	.arm
	.type	m1_read_otp_info_hynix, %function
m1_read_otp_info_hynix:
	@ args = 0, pretend = 0, frame = 16
	@ frame_needed = 0, uses_anonymous_args = 0
	push	{r4, r5, r6, r7, r8, lr}
	mov	r4, r0
	sub	sp, sp, #32
	mov	r6, r1
	bl	nand_enable_chip
	ldr	r0, [r4, #248]
	bl	ndfc_disable_randomize
	ldr	r2, [r4, #20]
	movw	r0, #:lower16:.LC154
	ldr	r3, [r4, #248]
	movt	r0, #:upper16:.LC154
	add	r3, r3, r2, lsl #2
	ldr	r2, [r3, #1044]
	ldr	r1, [r3, #1012]
	bl	NAND_Print_DBG
	cmp	r6, #0
	beq	.L797
	movw	r5, #:lower16:.LANCHOR0
	mov	r2, #1
	movt	r5, #:upper16:.LANCHOR0
	mov	r1, #255
	mov	r0, r4
	mov	r7, #1
	bl	set_one_cmd
	ldrb	r3, [r5, #193]	@ zero_extendqisi2
	mov	r1, #54
	mov	r2, #56
	add	r8, sp, #20
	mov	ip, #82
	strb	r2, [sp, #24]
	cmp	r3, #6
	strb	r1, [sp, #16]
	moveq	r3, #14
	add	r1, sp, #16
	strbeq	r3, [sp, #24]
	mov	r2, #0
	add	r3, sp, #24
	str	r7, [sp, #8]
	str	r7, [sp, #4]
	mov	r0, r4
	str	r8, [sp]
	strb	ip, [sp, #20]
	bl	set_cmd_with_nand_bus
	mov	r2, #0
	mov	r1, #22
	mov	r0, r4
	bl	set_one_cmd
	mov	r2, #0
	mov	r1, #23
	mov	r0, r4
	bl	set_one_cmd
	mov	r2, #0
	mov	r1, #4
	mov	r0, r4
	bl	set_one_cmd
	mov	r2, #0
	mov	r1, #25
	mov	r0, r4
	bl	set_one_cmd
	mov	r2, #0
	mov	r0, r4
	mov	r1, r2
	bl	set_one_cmd
	mov	r1, #0
	mov	r0, r4
	bl	set_one_addr
	mov	r1, #0
	mov	r0, r4
	bl	set_one_addr
	mov	r1, #0
	mov	r0, r4
	bl	set_one_addr
	mov	r1, #2
	mov	r0, r4
	bl	set_one_addr
	mov	r1, #0
	mov	r0, r4
	bl	set_one_addr
	mov	r3, #528
	mov	ip, #48
	add	r1, sp, #16
	str	r3, [sp]
	mov	r2, #0
	mov	r3, r6
	mov	r0, r4
	strb	ip, [sp, #16]
	bl	get_data_with_nand_bus_one_cmd
	mov	r2, r7
	mov	r1, #255
	mov	r0, r4
	mov	r7, #1
	bl	set_one_cmd
	ldrb	r3, [r5, #193]	@ zero_extendqisi2
	mov	r1, #54
	mov	r5, #0
	mov	r2, #56
	strb	r2, [sp, #24]
	mov	r0, r4
	cmp	r3, #6
	strb	r1, [sp, #16]
	moveq	r3, #14
	add	r1, sp, #16
	strbeq	r3, [sp, #24]
	mov	r2, r5
	add	r3, sp, #24
	str	r8, [sp]
	str	r7, [sp, #8]
	str	r7, [sp, #4]
	strb	r5, [sp, #20]
	bl	set_cmd_with_nand_bus
	mov	r2, r5
	mov	r1, #22
	mov	r0, r4
	bl	set_one_cmd
	mov	r2, r5
	mov	r1, r5
	mov	r0, r4
	bl	set_one_cmd
	mov	r1, r5
	mov	r0, r4
	bl	set_one_addr
	mov	r1, r5
	mov	r0, r4
	bl	set_one_addr
	mov	r1, r5
	mov	r0, r4
	bl	set_one_addr
	mov	r1, r5
	mov	r0, r4
	bl	set_one_addr
	mov	r1, r5
	mov	r0, r4
	bl	set_one_addr
	mov	r2, r7
	mov	r1, #48
	mov	r0, r4
	bl	set_one_cmd
	ldrb	r1, [r6]	@ zero_extendqisi2
	ldrb	r2, [r6, #1]	@ zero_extendqisi2
	cmp	r1, #8
	bne	.L794
	cmp	r2, #8
	bne	.L794
	mov	r0, r4
	bl	nand_disable_chip
	mov	r0, r5
.L790:
	add	sp, sp, #32
	@ sp needed
	pop	{r4, r5, r6, r7, r8, pc}
.L794:
	movw	r0, #:lower16:.LC156
	movt	r0, #:upper16:.LC156
	bl	NAND_Print
	mov	r0, r4
	bl	nand_disable_chip
	mvn	r0, #95
	add	sp, sp, #32
	@ sp needed
	pop	{r4, r5, r6, r7, r8, pc}
.L797:
	mov	r0, r4
	bl	nand_disable_chip
	movw	r0, #:lower16:.LC155
	movt	r0, #:upper16:.LC155
	bl	NAND_Print
	mvn	r0, #78
	b	.L790
	.size	m1_read_otp_info_hynix, .-m1_read_otp_info_hynix
	.align	2
	.global	m1_get_rr_value_otp_hynix
	.syntax unified
	.arm
	.type	m1_get_rr_value_otp_hynix, %function
m1_get_rr_value_otp_hynix:
	@ args = 0, pretend = 0, frame = 8
	@ frame_needed = 0, uses_anonymous_args = 0
	push	{r4, r5, r6, lr}
	mov	r6, r0
	sub	sp, sp, #8
	mov	r0, #528
	bl	nand_get_temp_buf
	subs	r5, r0, #0
	beq	.L804
	mov	r1, r5
	mov	r0, r6
	bl	m1_read_otp_info_hynix
	cmp	r0, #0
	blt	.L805
.L801:
	mov	r3, r5
	add	r2, r6, #48
	add	r1, sp, #7
	add	r0, sp, #6
	bl	m1_get_read_retry_cfg
	subs	r4, r0, #0
	blt	.L806
.L802:
	mov	r0, r5
	mov	r1, #528
	bl	nand_free_temp_buf
	mov	r0, r4
.L800:
	add	sp, sp, #8
	@ sp needed
	pop	{r4, r5, r6, pc}
.L805:
	ldr	r3, [r6, #248]
	movw	r0, #:lower16:.LC158
	ldr	r2, [r6, #20]
	movt	r0, #:upper16:.LC158
	ldr	r1, [r3, #8]
	bl	NAND_Print
	b	.L801
.L806:
	ldr	r3, [r6, #248]
	movw	r0, #:lower16:.LC159
	ldr	r2, [r6, #20]
	movt	r0, #:upper16:.LC159
	ldr	r1, [r3, #8]
	bl	NAND_Print
	b	.L802
.L804:
	movw	r0, #:lower16:.LC157
	movt	r0, #:upper16:.LC157
	bl	NAND_Print
	mvn	r0, #77
	b	.L800
	.size	m1_get_rr_value_otp_hynix, .-m1_get_rr_value_otp_hynix
	.align	2
	.global	m1_saveotpvalue
	.syntax unified
	.arm
	.type	m1_saveotpvalue, %function
m1_saveotpvalue:
	@ args = 0, pretend = 0, frame = 0
	@ frame_needed = 0, uses_anonymous_args = 0
	@ link register save eliminated.
	sub	r3, r1, #1
	add	r0, r0, #47
	add	r1, r1, #31
.L808:
	ldrb	r2, [r3, #1]!	@ zero_extendqisi2
	cmp	r3, r1
	strb	r2, [r0, #1]!
	bne	.L808
	bx	lr
	.size	m1_saveotpvalue, .-m1_saveotpvalue
	.align	2
	.global	m1_getotpparam
	.syntax unified
	.arm
	.type	m1_getotpparam, %function
m1_getotpparam:
	@ args = 0, pretend = 0, frame = 0
	@ frame_needed = 0, uses_anonymous_args = 0
	push	{r4, r5, r6, r7, r8, lr}
	movw	r7, #:lower16:.LC160
	mov	r6, r0
	mov	r4, r1
	movt	r7, #:upper16:.LC160
	mov	r5, #0
.L811:
	mov	r1, r5
	mov	r0, r7
	bl	NAND_Print_DBG
	mov	r0, r6
	add	r5, r5, #1
	bl	m1_get_rr_value_otp_hynix
	cmp	r0, #0
	bne	.L811
	add	lr, r6, #48
	add	r1, r4, #4
	add	r6, r6, #80
.L814:
	sub	r3, r1, #4
	mov	r2, lr
.L813:
	ldrb	ip, [r2], #1	@ zero_extendqisi2
	strb	ip, [r3], #1
	cmp	r1, r3
	bne	.L813
	add	lr, lr, #4
	add	r1, r1, #4
	cmp	lr, r6
	bne	.L814
	mov	r0, #0
	pop	{r4, r5, r6, r7, r8, pc}
	.size	m1_getotpparam, .-m1_getotpparam
	.align	2
	.global	m1_setdefaultparam
	.syntax unified
	.arm
	.type	m1_setdefaultparam, %function
m1_setdefaultparam:
	@ args = 0, pretend = 0, frame = 8
	@ frame_needed = 0, uses_anonymous_args = 0
	push	{r4, r5, r6, r7, r8, lr}
	movw	r6, #:lower16:.LANCHOR0
	movt	r6, #:upper16:.LANCHOR0
	sub	sp, sp, #8
	ldrb	r3, [r6, #194]	@ zero_extendqisi2
	cmp	r3, #0
	beq	.L825
	add	lr, r3, #47
	add	r2, r0, #47
	add	lr, r0, lr
	sub	r1, sp, #1
.L826:
	ldrb	ip, [r2, #1]!	@ zero_extendqisi2
	cmp	r2, lr
	strb	ip, [r1, #1]!
	bne	.L826
.L825:
	ldr	r2, .L837
	mov	r1, sp
	bl	m1_vender_set_param
	mov	r8, r0
	movw	r0, #:lower16:.LC136
	movt	r0, #:upper16:.LC136
	bl	NAND_Print_DBG
	ldrb	r3, [r6, #194]	@ zero_extendqisi2
	cmp	r3, #0
	beq	.L829
	movw	r7, #:lower16:.LC137
	sub	r5, sp, #1
	movt	r7, #:upper16:.LC137
	mov	r4, #0
.L828:
	ldrb	r1, [r5, #1]!	@ zero_extendqisi2
	mov	r0, r7
	bl	NAND_Print_DBG
	ldrb	r3, [r6, #194]	@ zero_extendqisi2
	add	r4, r4, #1
	cmp	r3, r4
	bhi	.L828
.L829:
	movw	r0, #:lower16:.LC132
	movt	r0, #:upper16:.LC132
	bl	NAND_Print_DBG
	mov	r0, r8
	add	sp, sp, #8
	@ sp needed
	pop	{r4, r5, r6, r7, r8, pc}
.L838:
	.align	2
.L837:
	.word	.LANCHOR0+196
	.size	m1_setdefaultparam, .-m1_setdefaultparam
	.align	2
	.global	m1_init_readretry_param
	.syntax unified
	.arm
	.type	m1_init_readretry_param, %function
m1_init_readretry_param:
	@ args = 0, pretend = 0, frame = 192
	@ frame_needed = 0, uses_anonymous_args = 0
	ldr	r3, [r0, #252]
	push	{r4, r5, r6, r7, r8, r9, r10, fp, lr}
	mov	r4, r0
	sub	sp, sp, #212
	ldr	r0, [r3, #12]
	lsl	r0, r0, #9
	bl	nand_get_temp_buf
	subs	r8, r0, #0
	beq	.L862
	movw	r0, #18048
	bl	nand_get_temp_buf
	subs	r3, r0, #0
	str	r3, [sp, #32]
	beq	.L874
	ldr	r3, [sp, #32]
	mvn	r1, #0
	add	r2, r3, #17920
	sub	r3, r3, #1
	add	r2, r2, #127
.L842:
	strb	r1, [r3, #1]!
	cmp	r2, r3
	bne	.L842
	movw	r3, #:lower16:.LC162
	movw	r2, #:lower16:.LC166
	movt	r3, #:upper16:.LC162
	add	r7, sp, #144
	str	r3, [sp, #40]
	sub	r3, r8, #1
	str	r3, [sp, #36]
	add	r3, r8, #31
	movt	r2, #:upper16:.LC166
	str	r3, [sp, #28]
	add	r3, r8, #63
	str	r2, [sp, #24]
	str	r3, [sp, #44]
.L859:
	movw	fp, #:lower16:.LC163
	mov	r5, #8
	movt	fp, #:upper16:.LC163
	mov	r9, #0
	str	fp, [sp, #20]
	ldr	fp, [sp, #40]
.L861:
	ldr	r1, [r4, #16]
	mov	r3, #16
	ldr	r2, [r4, #28]
	add	r0, sp, #52
	str	r3, [sp, #76]
	str	r1, [sp, #52]
	str	r2, [sp, #64]
	str	r5, [sp, #56]
	str	r9, [sp, #60]
	str	r8, [sp, #68]
	str	r7, [sp, #72]
	bl	m0_read_page
	ldr	r1, [r4, #248]
	mov	r6, r0
	ldrb	lr, [sp, #146]	@ zero_extendqisi2
	mov	r0, fp
	ldrb	r10, [sp, #147]	@ zero_extendqisi2
	ldr	r1, [r1, #8]
	ldrb	ip, [sp, #145]	@ zero_extendqisi2
	str	lr, [sp, #8]
	ldrb	lr, [sp, #144]	@ zero_extendqisi2
	ldr	r3, [sp, #56]
	ldr	r2, [sp, #52]
	str	r10, [sp, #12]
	str	ip, [sp, #4]
	str	lr, [sp]
	bl	NAND_Print_DBG
	cmp	r6, #0
	blt	.L843
	ldrb	r3, [sp, #144]	@ zero_extendqisi2
	cmp	r3, #0
	bne	.L843
	ldrb	r3, [sp, #145]	@ zero_extendqisi2
	cmp	r3, #79
	beq	.L875
.L843:
	add	r5, r5, #1
	cmp	r5, #12
	bne	.L861
	ldr	r3, [r4, #248]
	movw	r0, #:lower16:.LC170
	movt	r0, #:upper16:.LC170
	ldr	r1, [r3, #8]
	bl	NAND_Print_DBG
	add	r1, sp, #80
	mov	r0, r4
	bl	m1_getotpparam
	mov	r0, r4
	bl	m1_setdefaultparam
	ldr	r0, [sp, #36]
	add	r3, sp, #79
	ldr	r1, [sp, #28]
	add	lr, sp, #111
.L851:
	ldrb	r2, [r3, #1]!	@ zero_extendqisi2
	cmp	lr, r3
	mvn	ip, r2
	strb	r2, [r0, #1]!
	strb	ip, [r1, #1]!
	bne	.L851
	movw	fp, #:lower16:.LC165
	mov	r3, #0
	movt	fp, #:upper16:.LC165
	mov	r6, #8
	str	fp, [sp, #20]
	mov	r10, r3
	ldr	fp, [sp, #32]
	mov	r2, #66
	strb	r3, [sp, #144]
	mov	r3, #79
	strb	r3, [sp, #145]
	strb	r3, [sp, #146]
	strb	r2, [sp, #147]
.L858:
	ldr	r3, [r4, #16]
	add	r0, sp, #52
	str	r6, [sp, #56]
	str	r3, [sp, #52]
	bl	m0_erase_block
	cmp	r0, #0
	strge	r10, [sp, #60]
	movge	r5, #0
	movge	r9, #16
	blt	.L876
.L856:
	ldr	r3, [r4, #28]
	add	r0, sp, #52
	str	r8, [sp, #68]
	str	r7, [sp, #72]
	str	r9, [sp, #76]
	str	r3, [sp, #64]
	bl	m0_write_page
	cmp	r0, #0
	blt	.L877
.L854:
	add	r5, r5, #1
	cmp	r5, #2
	str	r5, [sp, #60]
	bne	.L856
	ldr	r1, [r4, #28]
	add	r0, sp, #52
	str	fp, [sp, #68]
	str	r7, [sp, #72]
	lsr	r1, r1, #1
	bl	m1_write_page_FF
	cmp	r0, #0
	blt	.L878
.L853:
	add	r6, r6, #1
	cmp	r6, #12
	bne	.L858
	ldr	r3, [r4, #248]
	movw	r0, #:lower16:.LC167
	ldr	r2, [sp, #52]
	movt	r0, #:upper16:.LC167
	ldr	r1, [r3, #8]
	bl	NAND_Print_DBG
	b	.L859
.L878:
	ldr	r3, [sp, #60]
	ldr	r0, [sp, #24]
	ldr	r2, [sp, #56]
	ldr	r1, [sp, #52]
	bl	NAND_Print
	b	.L853
.L877:
	ldr	r3, [sp, #60]
	ldr	r0, [sp, #24]
	ldr	r2, [sp, #56]
	ldr	r1, [sp, #52]
	bl	NAND_Print
	b	.L854
.L876:
	ldr	r2, [sp, #56]
	ldr	r0, [sp, #20]
	ldr	r1, [sp, #52]
	bl	NAND_Print
	b	.L853
.L875:
	ldrb	r3, [sp, #146]	@ zero_extendqisi2
	cmp	r3, #79
	bne	.L843
	ldrb	r3, [sp, #147]	@ zero_extendqisi2
	cmp	r3, #66
	bne	.L843
	ldr	r1, [sp, #36]
	ldr	ip, [sp, #28]
	mov	r6, r1
	mov	r0, ip
	b	.L845
.L844:
	cmp	ip, r1
	beq	.L879
.L845:
	ldrb	r3, [r0, #1]!	@ zero_extendqisi2
	ldrb	r2, [r1, #1]!	@ zero_extendqisi2
	add	r3, r3, r2
	cmp	r3, #255
	beq	.L844
	ldr	r0, [sp, #20]
	bl	NAND_Print_DBG
	b	.L843
.L879:
	ldr	r3, [sp, #36]
	ldr	r1, [sp, #44]
	b	.L847
.L880:
	cmp	r1, r3
	beq	.L843
.L847:
	ldrb	r2, [r3, #1]!	@ zero_extendqisi2
	cmp	r2, #0
	beq	.L880
	ldr	r1, [r4, #248]
	movw	r0, #:lower16:.LC168
	ldr	r3, [sp, #56]
	movt	r0, #:upper16:.LC168
	ldr	r2, [sp, #52]
	movw	r7, #:lower16:.LC164
	ldr	r1, [r1, #8]
	movw	r9, #:lower16:.LC132
	bl	NAND_Print_DBG
	ldr	r3, [r4, #248]
	movw	r0, #:lower16:.LC169
	ldr	r2, [sp, #52]
	movt	r7, #:upper16:.LC164
	movt	r0, #:upper16:.LC169
	movt	r9, #:upper16:.LC132
	ldr	r1, [r3, #8]
	mov	r5, r8
	mov	r10, #0
	bl	NAND_Print_DBG
	ldrb	r1, [r8]	@ zero_extendqisi2
	mov	r0, r7
	bl	NAND_Print_DBG
.L860:
	add	r10, r10, #1
	mov	r0, r7
	cmp	r10, #32
	beq	.L881
.L849:
	ldrb	r1, [r5, #1]!	@ zero_extendqisi2
	bl	NAND_Print_DBG
	and	r3, r10, #7
	cmp	r3, #7
	bne	.L860
	mov	r0, r9
	add	r10, r10, #1
	bl	NAND_Print_DBG
	cmp	r10, #32
	mov	r0, r7
	bne	.L849
.L881:
	ldr	r1, [sp, #28]
	add	r3, r4, #47
.L850:
	ldrb	r2, [r6, #1]!	@ zero_extendqisi2
	cmp	r1, r6
	strb	r2, [r3, #1]!
	bne	.L850
	mov	r0, r4
	bl	m1_setdefaultparam
	movw	r1, #18048
	ldr	r0, [sp, #32]
	bl	nand_free_temp_buf
	ldr	r3, [r4, #252]
	mov	r0, r8
	ldr	r1, [r3, #12]
	lsl	r1, r1, #9
	bl	nand_free_temp_buf
	mov	r0, #0
.L871:
	add	sp, sp, #212
	@ sp needed
	pop	{r4, r5, r6, r7, r8, r9, r10, fp, pc}
.L862:
	mvn	r0, #76
	b	.L871
.L874:
	ldr	r3, [r4, #252]
	mov	r0, r8
	ldr	r1, [r3, #12]
	lsl	r1, r1, #9
	bl	nand_free_temp_buf
	movw	r0, #:lower16:.LC161
	movt	r0, #:upper16:.LC161
	bl	NAND_Print
	mvn	r0, #75
	b	.L871
	.size	m1_init_readretry_param, .-m1_init_readretry_param
	.align	2
	.global	m1_readretry_init
	.syntax unified
	.arm
	.type	m1_readretry_init, %function
m1_readretry_init:
	@ args = 0, pretend = 0, frame = 0
	@ frame_needed = 0, uses_anonymous_args = 0
	ldr	r2, [r0, #252]
	movw	r3, #:lower16:.LANCHOR0
	movt	r3, #:upper16:.LANCHOR0
	push	{r4, lr}
	ldr	r2, [r2, #40]
	ubfx	r1, r2, #16, #8
	strb	r2, [r3, #194]
	cmp	r1, #4
	lsr	r2, r2, #8
	strb	r1, [r3, #193]
	strb	r2, [r3, #200]
	beq	.L890
	cmp	r1, #6
	bne	.L885
	mov	lr, #14
	mov	ip, #15
	mov	r1, #16
	mov	r2, #17
	strb	lr, [r3, #196]
	strb	ip, [r3, #197]
	strb	r1, [r3, #198]
	strb	r2, [r3, #199]
.L884:
	mov	ip, #0
	add	r3, r0, #47
	mov	r1, ip
	add	r2, r0, #175
	str	ip, [r0, #176]
.L887:
	strb	r1, [r3, #1]!
	cmp	r3, r2
	bne	.L887
	bl	m1_init_readretry_param
	mov	r0, #0
	pop	{r4, pc}
.L890:
	mov	lr, #56
	mov	ip, #57
	mov	r1, #58
	mov	r2, #59
	strb	lr, [r3, #196]
	strb	ip, [r3, #197]
	strb	r1, [r3, #198]
	strb	r2, [r3, #199]
	b	.L884
.L885:
	movw	r0, #:lower16:.LC139
	movt	r0, #:upper16:.LC139
	bl	NAND_Print
	mvn	r0, #74
	pop	{r4, pc}
	.size	m1_readretry_init, .-m1_readretry_init
	.align	2
	.global	m1_readretry_exit
	.syntax unified
	.arm
	.type	m1_readretry_exit, %function
m1_readretry_exit:
	@ args = 0, pretend = 0, frame = 0
	@ frame_needed = 0, uses_anonymous_args = 0
	push	{r4, lr}
	mov	r4, r0
	movw	r0, #:lower16:.LC171
	movt	r0, #:upper16:.LC171
	bl	NAND_Print_DBG
	mov	r0, r4
	bl	m1_setdefaultparam
	mov	r0, #0
	str	r0, [r4, #176]
	pop	{r4, pc}
	.size	m1_readretry_exit, .-m1_readretry_exit
	.align	2
	.global	m1_set_readretry
	.syntax unified
	.arm
	.type	m1_set_readretry, %function
m1_set_readretry:
	@ args = 0, pretend = 0, frame = 8
	@ frame_needed = 0, uses_anonymous_args = 0
	movw	r3, #:lower16:.LANCHOR0
	ldr	ip, [r0, #176]
	movt	r3, #:upper16:.LANCHOR0
	ldrb	r2, [r3, #200]	@ zero_extendqisi2
	cmp	ip, r2
	bhi	.L897
	push	{r4, lr}
	sub	sp, sp, #8
	ldrb	r3, [r3, #194]	@ zero_extendqisi2
	cmp	r3, #0
	moveq	r1, sp
	beq	.L895
	add	ip, r0, ip, lsl #2
	sub	r4, r3, #1
	mov	r1, sp
	add	ip, ip, #47
	add	r4, sp, r4
	sub	r2, sp, #1
.L896:
	ldrb	lr, [ip, #1]!	@ zero_extendqisi2
	strb	lr, [r2, #1]!
	cmp	r2, r4
	bne	.L896
.L895:
	ldr	r2, .L904
	bl	m1_vender_set_param
	add	sp, sp, #8
	@ sp needed
	pop	{r4, pc}
.L897:
	mvn	r0, #73
	bx	lr
.L905:
	.align	2
.L904:
	.word	.LANCHOR0+196
	.size	m1_set_readretry, .-m1_set_readretry
	.align	2
	.global	m1_read_page_end
	.syntax unified
	.arm
	.type	m1_read_page_end, %function
m1_read_page_end:
	@ args = 0, pretend = 0, frame = 0
	@ frame_needed = 0, uses_anonymous_args = 0
	movw	r3, #:lower16:g_nsi
	push	{r4, r5, r6, r7, r8, r9, lr}
	movt	r3, #:upper16:g_nsi
	ldr	r1, [r0]
	sub	sp, sp, #12
	mov	r6, r0
	ldr	r0, [r3]
	bl	nci_get_from_nsi
	mov	r5, r0
	mov	r0, r6
	bl	m0_read_page_end_not_retry
	cmn	r0, #2
	mov	r4, r0
	beq	.L919
	mov	r0, r4
	add	sp, sp, #12
	@ sp needed
	pop	{r4, r5, r6, r7, r8, r9, pc}
.L919:
	movw	r0, #:lower16:.LC172
	movw	r8, #:lower16:.LANCHOR0
	movt	r0, #:upper16:.LC172
	movt	r8, #:upper16:.LANCHOR0
	bl	NAND_Print_DBG
	ldrb	r2, [r8, #200]	@ zero_extendqisi2
	cmp	r2, #0
	beq	.L908
	mov	r7, #0
	mov	r9, r7
	b	.L913
.L911:
	bl	m0_read_page_start
	mov	r4, r0
	mov	r0, r6
	bl	m0_read_page_end_not_retry
	orr	r4, r4, r0
	cmp	r4, #0
	cmpne	r4, #10
	beq	.L920
	ldrb	r2, [r8, #200]	@ zero_extendqisi2
	cmp	r2, r7
	ble	.L908
.L913:
	ldr	r3, [r5, #176]
	mov	r0, r5
	add	r7, r7, #1
	add	r3, r3, #1
	cmp	r3, r2
	movhi	r3, r9
	str	r3, [r5, #176]
	bl	m1_set_readretry
	subs	r4, r0, #0
	mov	r0, r6
	beq	.L911
	mov	r3, #0
	mov	r0, r5
	str	r3, [r5, #176]
	bl	m1_set_readretry
.L908:
	mov	r3, #0
	mov	r0, r5
	str	r3, [r5, #176]
	bl	m1_set_readretry
	mov	r0, r4
	add	sp, sp, #12
	@ sp needed
	pop	{r4, r5, r6, r7, r8, r9, pc}
.L920:
	ldr	r2, [r5, #248]
	movw	r0, #:lower16:.LC173
	ldr	lr, [r6, #8]
	movt	r0, #:upper16:.LC173
	ldr	ip, [r5, #176]
	mov	r4, #10
	ldr	r1, [r2, #8]
	ldr	r3, [r6, #4]
	ldr	r2, [r5, #20]
	str	lr, [sp]
	str	ip, [sp, #4]
	bl	NAND_Print_DBG
	b	.L908
	.size	m1_read_page_end, .-m1_read_page_end
	.align	2
	.global	m1_special_init
	.syntax unified
	.arm
	.type	m1_special_init, %function
m1_special_init:
	@ args = 0, pretend = 0, frame = 0
	@ frame_needed = 0, uses_anonymous_args = 0
	movw	r3, #:lower16:g_nsi
	push	{r4, r5, r6, lr}
	movt	r3, #:upper16:g_nsi
	ldr	r3, [r3]
	ldr	r4, [r3, #8]
	cmp	r4, #0
	beq	.L922
	mov	r5, #0
.L923:
	mov	r0, r4
	bl	m1_readretry_init
	ldr	r4, [r4]
	orr	r5, r5, r0
	cmp	r4, #0
	bne	.L923
	cmp	r5, #0
	beq	.L922
	movw	r1, #:lower16:.LANCHOR0
	movw	r0, #:lower16:.LC175
	movt	r1, #:upper16:.LANCHOR0
	movt	r0, #:upper16:.LC175
	ldrb	r3, [r1, #194]	@ zero_extendqisi2
	ldrb	r2, [r1, #200]	@ zero_extendqisi2
	ldrb	r1, [r1, #193]	@ zero_extendqisi2
	bl	NAND_Print
	mov	r0, r5
	pop	{r4, r5, r6, pc}
.L922:
	movw	r1, #:lower16:.LANCHOR0
	movw	ip, #:lower16:function_read_page_end
	movt	r1, #:upper16:.LANCHOR0
	movw	lr, #:lower16:m1_read_page_end
	movw	r0, #:lower16:.LC174
	ldrb	r3, [r1, #194]	@ zero_extendqisi2
	ldrb	r2, [r1, #200]	@ zero_extendqisi2
	movt	ip, #:upper16:function_read_page_end
	movt	lr, #:upper16:m1_read_page_end
	ldrb	r1, [r1, #193]	@ zero_extendqisi2
	mov	r5, #0
	movt	r0, #:upper16:.LC174
	str	lr, [ip]
	bl	NAND_Print_DBG
	mov	r0, r5
	pop	{r4, r5, r6, pc}
	.size	m1_special_init, .-m1_special_init
	.align	2
	.global	m1_special_exit
	.syntax unified
	.arm
	.type	m1_special_exit, %function
m1_special_exit:
	@ args = 0, pretend = 0, frame = 0
	@ frame_needed = 0, uses_anonymous_args = 0
	movw	r3, #:lower16:g_nsi
	push	{r4, r5, r6, lr}
	movt	r3, #:upper16:g_nsi
	ldr	r3, [r3]
	ldr	r4, [r3, #8]
	cmp	r4, #0
	beq	.L934
	movw	r5, #:lower16:.LC171
	mov	r6, #0
	movt	r5, #:upper16:.LC171
.L933:
	mov	r0, r5
	bl	NAND_Print_DBG
	mov	r0, r4
	bl	m1_setdefaultparam
	str	r6, [r4, #176]
	ldr	r4, [r4]
	cmp	r4, #0
	bne	.L933
.L934:
	movw	r0, #:lower16:.LC176
	movt	r0, #:upper16:.LC176
	bl	NAND_Print_DBG
	mov	r0, #0
	pop	{r4, r5, r6, pc}
	.size	m1_special_exit, .-m1_special_exit
	.align	2
	.global	m1_is_lsb_page
	.syntax unified
	.arm
	.type	m1_is_lsb_page, %function
m1_is_lsb_page:
	@ args = 0, pretend = 0, frame = 0
	@ frame_needed = 0, uses_anonymous_args = 0
	@ link register save eliminated.
	movw	r3, #:lower16:g_nsi
	cmp	r0, #0
	movt	r3, #:upper16:g_nsi
	ldr	r3, [r3]
	ldr	r3, [r3, #8]
	ldr	r3, [r3, #32]
	beq	.L940
	sub	r3, r3, #1
	cmp	r0, r3
	beq	.L941
	and	r0, r0, #1
	bx	lr
.L940:
	mov	r0, #1
	bx	lr
.L941:
	mov	r0, #0
	bx	lr
	.size	m1_is_lsb_page, .-m1_is_lsb_page
	.align	2
	.global	micron_intel_set_feature
	.syntax unified
	.arm
	.type	micron_intel_set_feature, %function
micron_intel_set_feature:
	@ args = 0, pretend = 0, frame = 16
	@ frame_needed = 0, uses_anonymous_args = 0
	push	{r4, r5, r6, r7, lr}
	sub	sp, sp, #20
	mov	r3, r1
	mov	r4, #0
	mov	r6, r2
	add	r1, sp, #7
	mov	r7, r0
	add	r2, sp, #8
	strb	r3, [sp, #7]
	mov	r5, r3
	strb	r6, [sp, #8]
	strb	r4, [sp, #9]
	strb	r4, [sp, #10]
	strb	r4, [sp, #11]
	bl	nand_set_feature
	add	r2, sp, #12
	add	r1, sp, #7
	mov	r0, r7
	bl	nand_get_feature
	ldrb	r2, [sp, #12]	@ zero_extendqisi2
	ldrb	r3, [sp, #8]	@ zero_extendqisi2
	cmp	r2, r3
	moveq	r0, r4
	bne	.L946
.L943:
	add	sp, sp, #20
	@ sp needed
	pop	{r4, r5, r6, r7, pc}
.L946:
	movw	r0, #:lower16:.LC177
	mov	r2, r6
	mov	r1, r5
	movt	r0, #:upper16:.LC177
	bl	NAND_Print
	mvn	r0, #71
	b	.L943
	.size	micron_intel_set_feature, .-micron_intel_set_feature
	.align	2
	.global	m4_readretry_init
	.syntax unified
	.arm
	.type	m4_readretry_init, %function
m4_readretry_init:
	@ args = 0, pretend = 0, frame = 0
	@ frame_needed = 0, uses_anonymous_args = 0
	ldr	r3, [r0, #252]
	mov	r1, #137
	push	{r4, r5, r6, r7, r8, lr}
	mov	r7, #0
	ldr	r5, .L955
	movw	r4, #:lower16:.LANCHOR0
	movt	r4, #:upper16:.LANCHOR0
	mov	r2, r7
	ldr	r3, [r3, #40]
	mov	r6, r0
	str	r7, [r0, #176]
	str	r5, [r4, #204]
	lsr	ip, r3, #16
	lsr	r3, r3, #8
	strb	ip, [r4, #208]
	strb	r3, [r4, #209]
	bl	micron_intel_set_feature
	ldrb	r3, [r4, #208]	@ zero_extendqisi2
	cmp	r3, #65
	moveq	r1, #12
	streq	r5, [r4, #204]
	strbeq	r1, [r4, #209]
	beq	.L949
	cmp	r3, #64
	beq	.L954
	cmp	r3, #80
	bne	.L951
	mov	r3, #7
	mov	r1, #147
	add	r5, r5, #24
	mov	r2, r7
	mov	r0, r6
	str	r5, [r4, #204]
	strb	r3, [r4, #209]
	bl	micron_intel_set_feature
	ldrb	r1, [r4, #209]	@ zero_extendqisi2
.L949:
	movw	r0, #:lower16:.LC179
	movt	r0, #:upper16:.LC179
	bl	NAND_Print_DBG
	mov	r0, #0
	pop	{r4, r5, r6, r7, r8, pc}
.L954:
	mov	r3, #10
	add	r5, r5, #12
	str	r5, [r4, #204]
	mov	r1, r3
	strb	r3, [r4, #209]
	b	.L949
.L951:
	movw	r0, #:lower16:.LC178
	movt	r0, #:upper16:.LC178
	bl	NAND_Print
	mvn	r0, #70
	pop	{r4, r5, r6, r7, r8, pc}
.L956:
	.align	2
.L955:
	.word	.LANCHOR1+500
	.size	m4_readretry_init, .-m4_readretry_init
	.align	2
	.global	m4_readretry_exit
	.syntax unified
	.arm
	.type	m4_readretry_exit, %function
m4_readretry_exit:
	@ args = 0, pretend = 0, frame = 0
	@ frame_needed = 0, uses_anonymous_args = 0
	@ link register save eliminated.
	movw	r3, #:lower16:.LANCHOR0
	mov	r2, #0
	movt	r3, #:upper16:.LANCHOR0
	mov	r0, r2
	strb	r2, [r3, #208]
	strb	r2, [r3, #209]
	bx	lr
	.size	m4_readretry_exit, .-m4_readretry_exit
	.align	2
	.global	m4_set_readretry
	.syntax unified
	.arm
	.type	m4_set_readretry, %function
m4_set_readretry:
	@ args = 0, pretend = 0, frame = 0
	@ frame_needed = 0, uses_anonymous_args = 0
	push	{r4, r5, r6, r7, r8, lr}
	mov	r4, r0
	movw	r5, #:lower16:.LANCHOR0
	movt	r5, #:upper16:.LANCHOR0
	bl	nand_enable_chip
	ldr	r0, [r4, #248]
	bl	ndfc_disable_randomize
	ldrb	r3, [r5, #208]	@ zero_extendqisi2
	sub	r2, r3, #64
	cmp	r3, #80
	cmpne	r2, #1
	movhi	r7, #0
	bhi	.L959
	ldr	r1, [r4, #176]
	uxtb	r2, r1
	cmp	r2, #255
	movne	r6, r2
	moveq	r6, #0
	cmp	r3, #80
	beq	.L967
.L961:
	ldr	r3, [r5, #204]
	mov	r1, #137
	mov	r0, r4
	ldrb	r2, [r3, r6]	@ zero_extendqisi2
	bl	micron_intel_set_feature
	mov	r7, r0
.L959:
	ldr	r3, [r4, #176]
	mov	r0, r4
	cmp	r3, #255
	moveq	r3, #0
	streq	r3, [r4, #176]
	bl	nand_disable_chip
	mov	r0, r7
	pop	{r4, r5, r6, r7, r8, pc}
.L967:
	ldr	r3, [r5, #204]
	ldrb	r3, [r3, r6]	@ zero_extendqisi2
	cmp	r3, #0
	beq	.L968
.L962:
	cmp	r1, #255
	bne	.L961
	mov	r2, #0
	mov	r1, #137
	mov	r0, r4
	bl	micron_intel_set_feature
	mov	r2, #0
	mov	r7, r0
	mov	r1, #147
	mov	r0, r4
	bl	micron_intel_set_feature
	orr	r7, r7, r0
	b	.L959
.L968:
	mov	r2, #1
	mov	r1, #147
	mov	r0, r4
	bl	micron_intel_set_feature
	subs	r7, r0, #0
	bne	.L959
	ldr	r1, [r4, #176]
	b	.L962
	.size	m4_set_readretry, .-m4_set_readretry
	.align	2
	.global	m4_read_page_end
	.syntax unified
	.arm
	.type	m4_read_page_end, %function
m4_read_page_end:
	@ args = 0, pretend = 0, frame = 0
	@ frame_needed = 0, uses_anonymous_args = 0
	movw	r3, #:lower16:g_nsi
	push	{r4, r5, r6, r7, r8, lr}
	movt	r3, #:upper16:g_nsi
	ldr	r1, [r0]
	sub	sp, sp, #8
	mov	r8, r0
	ldr	r0, [r3]
	bl	nci_get_from_nsi
	mov	r7, r0
	mov	r0, r8
	bl	m0_read_page_end_not_retry
	cmn	r0, #2
	mov	r5, r0
	beq	.L982
	mov	r0, r5
	add	sp, sp, #8
	@ sp needed
	pop	{r4, r5, r6, r7, r8, pc}
.L982:
	movw	r0, #:lower16:.LC180
	movw	r6, #:lower16:.LANCHOR0
	movt	r0, #:upper16:.LC180
	movt	r6, #:upper16:.LANCHOR0
	bl	NAND_Print_DBG
	ldrb	r3, [r6, #209]	@ zero_extendqisi2
	cmp	r3, #0
	beq	.L971
	mov	r4, #0
	b	.L973
.L972:
	ldrb	r3, [r6, #209]	@ zero_extendqisi2
	cmp	r3, r4
	ble	.L971
.L973:
	str	r4, [r7, #176]
	mov	r0, r7
	bl	m4_set_readretry
	subs	r5, r0, #0
	add	r4, r4, #1
	bne	.L972
	mov	r0, r8
	bl	m0_read_page_start
	mov	r5, r0
	mov	r0, r8
	bl	m0_read_page_end_not_retry
	orr	r5, r5, r0
	cmp	r5, #0
	cmpne	r5, #10
	bne	.L972
	ldr	r2, [r7, #248]
	movw	r0, #:lower16:.LC181
	ldr	lr, [r8, #8]
	movt	r0, #:upper16:.LC181
	ldr	ip, [r7, #176]
	mov	r5, #10
	ldr	r1, [r2, #8]
	ldr	r3, [r8, #4]
	ldr	r2, [r7, #20]
	str	lr, [sp]
	str	ip, [sp, #4]
	bl	NAND_Print_DBG
.L971:
	mov	r3, #255
	mov	r0, r7
	str	r3, [r7, #176]
	bl	m4_set_readretry
	mov	r0, r5
	add	sp, sp, #8
	@ sp needed
	pop	{r4, r5, r6, r7, r8, pc}
	.size	m4_read_page_end, .-m4_read_page_end
	.align	2
	.global	m4_special_init
	.syntax unified
	.arm
	.type	m4_special_init, %function
m4_special_init:
	@ args = 0, pretend = 0, frame = 0
	@ frame_needed = 0, uses_anonymous_args = 0
	movw	r3, #:lower16:g_nsi
	push	{r4, r5, r6, lr}
	movt	r3, #:upper16:g_nsi
	ldr	r3, [r3]
	ldr	r4, [r3, #8]
	cmp	r4, #0
	beq	.L984
	mov	r5, #0
.L985:
	mov	r0, r4
	bl	m4_readretry_init
	ldr	r4, [r4]
	orr	r5, r5, r0
	cmp	r4, #0
	bne	.L985
	cmp	r5, #0
	beq	.L984
	movw	r3, #:lower16:.LANCHOR0
	movw	r0, #:lower16:.LC183
	movt	r3, #:upper16:.LANCHOR0
	movt	r0, #:upper16:.LC183
	ldrb	r2, [r3, #209]	@ zero_extendqisi2
	ldrb	r1, [r3, #208]	@ zero_extendqisi2
	bl	NAND_Print
	mov	r0, r5
	pop	{r4, r5, r6, pc}
.L984:
	movw	r3, #:lower16:.LANCHOR0
	movw	ip, #:lower16:function_read_page_end
	movt	r3, #:upper16:.LANCHOR0
	movw	lr, #:lower16:m4_read_page_end
	movw	r0, #:lower16:.LC182
	movt	ip, #:upper16:function_read_page_end
	movt	lr, #:upper16:m4_read_page_end
	ldrb	r2, [r3, #209]	@ zero_extendqisi2
	ldrb	r1, [r3, #208]	@ zero_extendqisi2
	mov	r5, #0
	movt	r0, #:upper16:.LC182
	str	lr, [ip]
	bl	NAND_Print_DBG
	mov	r0, r5
	pop	{r4, r5, r6, pc}
	.size	m4_special_init, .-m4_special_init
	.align	2
	.global	m4_special_exit
	.syntax unified
	.arm
	.type	m4_special_exit, %function
m4_special_exit:
	@ args = 0, pretend = 0, frame = 0
	@ frame_needed = 0, uses_anonymous_args = 0
	movw	r3, #:lower16:g_nsi
	push	{r4, lr}
	movt	r3, #:upper16:g_nsi
	ldr	r3, [r3]
	ldr	r3, [r3, #8]
	cmp	r3, #0
	beq	.L996
.L995:
	ldr	r3, [r3]
	cmp	r3, #0
	bne	.L995
	movw	r2, #:lower16:.LANCHOR0
	movt	r2, #:upper16:.LANCHOR0
	strb	r3, [r2, #208]
	strb	r3, [r2, #209]
.L996:
	movw	r0, #:lower16:.LC184
	movt	r0, #:upper16:.LC184
	bl	NAND_Print_DBG
	mov	r0, #0
	pop	{r4, pc}
	.size	m4_special_exit, .-m4_special_exit
	.align	2
	.global	m4_0x41_is_lsb_page
	.syntax unified
	.arm
	.type	m4_0x41_is_lsb_page, %function
m4_0x41_is_lsb_page:
	@ args = 0, pretend = 0, frame = 0
	@ frame_needed = 0, uses_anonymous_args = 0
	@ link register save eliminated.
	sub	r3, r0, #2
	cmp	r3, #1
	bls	.L1004
	movw	r3, #:lower16:g_nsi
	movt	r3, #:upper16:g_nsi
	ldr	r3, [r3]
	ldr	r3, [r3, #8]
	ldr	r3, [r3, #252]
	ldr	r3, [r3, #16]
	sub	r2, r3, #2
	cmp	r0, r2
	beq	.L1004
	sub	r3, r3, #1
	cmp	r0, r3
	beq	.L1004
	and	r0, r0, #3
	cmp	r0, #1
	movhi	r0, #0
	movls	r0, #1
	bx	lr
.L1004:
	mov	r0, #1
	bx	lr
	.size	m4_0x41_is_lsb_page, .-m4_0x41_is_lsb_page
	.align	2
	.global	m4_0x42_is_lsb_page
	.syntax unified
	.arm
	.type	m4_0x42_is_lsb_page, %function
m4_0x42_is_lsb_page:
	@ args = 0, pretend = 0, frame = 0
	@ frame_needed = 0, uses_anonymous_args = 0
	@ link register save eliminated.
	sub	r3, r0, #7
	cmp	r0, #5
	cmphi	r3, #1
	movls	r3, #1
	movhi	r3, #0
	bls	.L1008
	movw	r2, #509
	cmp	r0, r2
	beq	.L1008
	cmp	r0, #508
	cmpne	r0, #6
	movw	r1, #511
	moveq	r2, #1
	movne	r2, #0
	cmp	r0, r1
	orreq	r2, r2, #1
	cmp	r2, #0
	bne	.L1009
	and	r0, r0, #3
	sub	r0, r0, #2
	cmp	r0, #1
	movhi	r0, #0
	movls	r0, #1
	bx	lr
.L1008:
	mov	r0, #1
	bx	lr
.L1009:
	mov	r0, r3
	bx	lr
	.size	m4_0x42_is_lsb_page, .-m4_0x42_is_lsb_page
	.align	2
	.global	m2_vender_get_param
	.syntax unified
	.arm
	.type	m2_vender_get_param, %function
m2_vender_get_param:
	@ args = 0, pretend = 0, frame = 8
	@ frame_needed = 0, uses_anonymous_args = 0
	push	{r4, r5, r6, r7, r8, lr}
	mov	r7, r0
	sub	sp, sp, #16
	mov	r6, r3
	mov	r5, r1
	mov	r4, r2
	bl	nand_enable_chip
	ldr	r0, [r7, #248]
	bl	ndfc_disable_randomize
	cmp	r6, #0
	mov	r3, #55
	strb	r3, [sp, #15]
	beq	.L1013
	add	r6, r4, r6
	mov	r8, #1
.L1012:
	mov	r3, r5
	mov	r2, r4
	str	r8, [sp]
	add	r1, sp, #15
	add	r4, r4, #1
	mov	r0, r7
	bl	get_data_with_nand_bus_one_cmd
	cmp	r4, r6
	add	r5, r5, #1
	bne	.L1012
.L1013:
	mov	r0, r7
	bl	nand_disable_chip
	mov	r0, #0
	add	sp, sp, #16
	@ sp needed
	pop	{r4, r5, r6, r7, r8, pc}
	.size	m2_vender_get_param, .-m2_vender_get_param
	.align	2
	.global	m2_vender_set_param
	.syntax unified
	.arm
	.type	m2_vender_set_param, %function
m2_vender_set_param:
	@ args = 0, pretend = 0, frame = 8
	@ frame_needed = 0, uses_anonymous_args = 0
	push	{r4, r5, r6, r7, r8, lr}
	mov	ip, #54
	sub	sp, sp, #24
	mov	r6, r0
	mov	r8, r3
	mov	r5, r1
	mov	r4, r2
	strb	ip, [sp, #23]
	bl	nand_enable_chip
	ldr	r0, [r6, #248]
	bl	ndfc_disable_randomize
	cmp	r8, #0
	beq	.L1020
	add	r8, r4, r8
	mov	r7, #1
.L1019:
	mov	r3, r4
	mov	r2, #0
	str	r5, [sp]
	add	r1, sp, #23
	str	r7, [sp, #8]
	mov	r0, r6
	str	r7, [sp, #4]
	add	r4, r4, #1
	bl	set_cmd_with_nand_bus
	mov	r2, #0
	mov	r1, #22
	mov	r0, r6
	add	r5, r5, #1
	bl	set_one_cmd
	cmp	r4, r8
	bne	.L1019
.L1020:
	mov	r0, r6
	bl	nand_disable_chip
	mov	r0, #0
	add	sp, sp, #24
	@ sp needed
	pop	{r4, r5, r6, r7, r8, pc}
	.size	m2_vender_set_param, .-m2_vender_set_param
	.align	2
	.global	m2_lsb_init
	.syntax unified
	.arm
	.type	m2_lsb_init, %function
m2_lsb_init:
	@ args = 0, pretend = 0, frame = 0
	@ frame_needed = 0, uses_anonymous_args = 0
	ldr	r2, [r0, #252]
	movw	r3, #:lower16:.LANCHOR0
	movt	r3, #:upper16:.LANCHOR0
	push	{r4, lr}
	ldr	r2, [r2, #40]
	ubfx	r1, r2, #16, #8
	strb	r2, [r3, #212]
	cmp	r1, #2
	lsr	r2, r2, #8
	strb	r1, [r3, #210]
	strb	r2, [r3, #211]
	beq	.L1029
	cmp	r1, #3
	beq	.L1030
	mov	r0, #0
	pop	{r4, pc}
.L1030:
	mov	r4, #4
	mvn	lr, #95
	mvn	ip, #94
	mvn	r0, #88
	mvn	r1, #87
.L1028:
	mov	r2, #10
	strb	r0, [r3, #218]
	strb	r4, [r3, #213]
	mov	r0, #0
	strb	lr, [r3, #216]
	strb	ip, [r3, #217]
	strb	r1, [r3, #219]
	strb	r2, [r3, #220]
	strb	r2, [r3, #221]
	strb	r2, [r3, #222]
	strb	r2, [r3, #223]
	pop	{r4, pc}
.L1029:
	mov	r4, #4
	mvn	lr, #79
	mvn	ip, #78
	mvn	r0, #95
	mvn	r1, #94
	b	.L1028
	.size	m2_lsb_init, .-m2_lsb_init
	.align	2
	.global	m2_lsb_enable
	.syntax unified
	.arm
	.type	m2_lsb_enable, %function
m2_lsb_enable:
	@ args = 0, pretend = 0, frame = 8
	@ frame_needed = 0, uses_anonymous_args = 0
	push	{r4, r5, r6, lr}
	movw	r4, #:lower16:.LANCHOR0
	movt	r4, #:upper16:.LANCHOR0
	sub	sp, sp, #8
	add	r5, r4, #224
	add	r2, r4, #216
	ldrb	r3, [r4, #213]	@ zero_extendqisi2
	mov	r1, r5
	mov	r6, r0
	bl	m2_vender_get_param
	ldrb	r3, [r4, #213]	@ zero_extendqisi2
	cmp	r3, #0
	addeq	r1, sp, #4
	beq	.L1032
	add	r1, sp, #4
	mov	r0, r5
	add	r2, r4, #220
	add	r5, r5, r3
	mov	lr, r1
.L1033:
	ldrb	ip, [r0], #1	@ zero_extendqisi2
	ldrb	r4, [r2], #1	@ zero_extendqisi2
	cmp	r0, r5
	add	ip, ip, r4
	strb	ip, [lr], #1
	bne	.L1033
.L1032:
	mov	r0, r6
	ldr	r2, .L1039
	bl	m2_vender_set_param
	mov	r0, #0
	add	sp, sp, #8
	@ sp needed
	pop	{r4, r5, r6, pc}
.L1040:
	.align	2
.L1039:
	.word	.LANCHOR0+216
	.size	m2_lsb_enable, .-m2_lsb_enable
	.align	2
	.global	m2_lsb_disable
	.syntax unified
	.arm
	.type	m2_lsb_disable, %function
m2_lsb_disable:
	@ args = 0, pretend = 0, frame = 0
	@ frame_needed = 0, uses_anonymous_args = 0
	movw	r1, #:lower16:.LANCHOR0
	push	{r4, lr}
	movt	r1, #:upper16:.LANCHOR0
	add	r2, r1, #216
	add	r1, r1, #224
	ldrb	r3, [r1, #-11]	@ zero_extendqisi2
	bl	m2_vender_set_param
	mov	r0, #0
	pop	{r4, pc}
	.size	m2_lsb_disable, .-m2_lsb_disable
	.align	2
	.global	m2_lsb_exit
	.syntax unified
	.arm
	.type	m2_lsb_exit, %function
m2_lsb_exit:
	@ args = 0, pretend = 0, frame = 0
	@ frame_needed = 0, uses_anonymous_args = 0
	push	{r4, lr}
	mov	r4, r0
	bl	nand_enable_chip
	ldr	r0, [r4, #248]
	bl	ndfc_disable_randomize
	mov	r2, #0
	mov	r0, r4
	mov	r1, r2
	bl	set_one_cmd
	mov	r0, r4
	mov	r1, #0
	bl	set_one_addr
	mov	r0, r4
	mov	r1, #0
	bl	set_one_addr
	mov	r0, r4
	mov	r1, #0
	bl	set_one_addr
	mov	r0, r4
	mov	r1, #0
	bl	set_one_addr
	mov	r0, r4
	mov	r1, #0
	bl	set_one_addr
	mov	r2, #1
	mov	r1, #48
	mov	r0, r4
	bl	set_one_cmd
	movw	r0, #:lower16:.LC185
	movt	r0, #:upper16:.LC185
	bl	NAND_Print_DBG
	mov	r0, r4
	bl	nand_disable_chip
	mov	r0, #0
	pop	{r4, pc}
	.size	m2_lsb_exit, .-m2_lsb_exit
	.align	2
	.global	m2_vender_get_param_otp_hynix
	.syntax unified
	.arm
	.type	m2_vender_get_param_otp_hynix, %function
m2_vender_get_param_otp_hynix:
	@ args = 0, pretend = 0, frame = 16
	@ frame_needed = 0, uses_anonymous_args = 0
	movw	r3, #:lower16:.LANCHOR0
	push	{r4, r5, r6, r7, r8, lr}
	movt	r3, #:upper16:.LANCHOR0
	sub	sp, sp, #32
	mov	r2, #0
	ldrb	r3, [r3, #210]	@ zero_extendqisi2
	strb	r2, [sp, #28]
	cmp	r3, #2
	beq	.L1068
	cmp	r3, #3
	bne	.L1058
	mvn	r1, #81
	mvn	r2, #79
	mov	r3, #77
	strb	r1, [sp, #24]
	strb	r2, [sp, #25]
	strb	r3, [sp, #29]
.L1047:
	mov	r4, r0
	mov	r0, #1024
	bl	nand_get_temp_buf
	mov	r5, r0
	mov	r0, r4
	bl	nand_enable_chip
	mov	r6, #1
	ldr	r0, [r4, #248]
	bl	ndfc_disable_randomize
	mov	r2, r6
	mov	r1, #255
	mov	r0, r4
	bl	set_one_cmd
	add	r2, sp, #28
	mov	ip, #54
	add	r1, sp, #20
	add	r3, sp, #24
	str	r2, [sp]
	mov	r0, r4
	mov	r2, #0
	str	r6, [sp, #8]
	str	r6, [sp, #4]
	strb	ip, [sp, #20]
	bl	set_cmd_with_nand_bus
	mov	r2, #0
	add	r0, sp, #29
	add	r3, sp, #25
	mov	r1, r2
	str	r0, [sp]
	mov	r0, r4
	str	r6, [sp, #8]
	str	r6, [sp, #4]
	bl	set_cmd_with_nand_bus
	mov	r2, #0
	mov	r1, #22
	mov	r0, r4
	bl	set_one_cmd
	mov	r2, #0
	mov	r1, #23
	mov	r0, r4
	bl	set_one_cmd
	mov	r2, #0
	mov	r1, #4
	mov	r0, r4
	bl	set_one_cmd
	mov	r2, #0
	mov	r1, #25
	mov	r0, r4
	bl	set_one_cmd
	mov	r2, #0
	mov	r0, r4
	mov	r1, r2
	bl	set_one_cmd
	mov	r1, #0
	mov	r0, r4
	bl	set_one_addr
	mov	r1, #0
	mov	r0, r4
	bl	set_one_addr
	mov	r1, #0
	mov	r0, r4
	bl	set_one_addr
	mov	r1, #2
	mov	r0, r4
	bl	set_one_addr
	mov	r1, #0
	mov	r0, r4
	bl	set_one_addr
	mov	r2, #2
	add	r1, sp, #20
	str	r2, [sp]
	mov	ip, #48
	mov	r2, #0
	mov	r3, r5
	mov	r0, r4
	strb	ip, [sp, #20]
	bl	get_data_with_nand_bus_one_cmd
	ldrb	r1, [r5]	@ zero_extendqisi2
	ldrb	r2, [r5, #1]	@ zero_extendqisi2
	cmp	r1, #8
	beq	.L1069
.L1050:
	movw	r0, #:lower16:.LC156
	mvn	r6, #95
	movt	r0, #:upper16:.LC156
	bl	NAND_Print
.L1051:
	mov	r3, #1024
	mov	r2, #0
	str	r3, [sp]
	mov	r1, r2
	mov	r3, r5
	mov	r0, r4
	bl	get_data_with_nand_bus_one_cmd
	add	r7, r5, #63
	mov	r1, #0
	add	r8, r4, #47
.L1052:
	sub	r2, r7, #64
	mov	r0, r8
	mov	lr, r7
	b	.L1054
.L1071:
	cmp	r7, r2
	beq	.L1070
.L1054:
	ldrb	ip, [r2, #1]!	@ zero_extendqisi2
	strb	ip, [r0, #1]!
	ldrb	r3, [lr, #1]!	@ zero_extendqisi2
	add	r3, r3, ip
	cmp	r3, #255
	beq	.L1071
	add	r1, r1, #1
	add	r7, r7, #128
	cmp	r1, #8
	bne	.L1052
	movw	r0, #:lower16:.LC187
	mvn	r6, #94
	movt	r0, #:upper16:.LC187
	bl	NAND_Print_DBG
.L1057:
	mov	r2, #1
	mov	r1, #255
	mov	r0, r4
	bl	set_one_cmd
	mov	r2, #1
	mov	r1, #56
	mov	r0, r4
	bl	set_one_cmd
	mov	r0, r4
	bl	nand_disable_chip
	mov	r0, r5
	mov	r1, #1024
	bl	nand_free_temp_buf
	mov	r0, r6
.L1063:
	add	sp, sp, #32
	@ sp needed
	pop	{r4, r5, r6, r7, r8, pc}
.L1070:
	movw	r0, #:lower16:.LC186
	movt	r0, #:upper16:.LC186
	bl	NAND_Print_DBG
	b	.L1057
.L1069:
	cmp	r2, #8
	moveq	r6, #0
	bne	.L1050
	b	.L1051
.L1068:
	mvn	ip, #0
	mvn	r1, #51
	mov	r2, #64
	mov	r3, #77
	strb	ip, [sp, #24]
	strb	r1, [sp, #25]
	strb	r2, [sp, #28]
	strb	r3, [sp, #29]
	b	.L1047
.L1058:
	mvn	r0, #96
	b	.L1063
	.size	m2_vender_get_param_otp_hynix, .-m2_vender_get_param_otp_hynix
	.align	2
	.global	m2_saveotpvalue
	.syntax unified
	.arm
	.type	m2_saveotpvalue, %function
m2_saveotpvalue:
	@ args = 0, pretend = 0, frame = 0
	@ frame_needed = 0, uses_anonymous_args = 0
	@ link register save eliminated.
	sub	r3, r1, #1
	add	r0, r0, #47
	add	r1, r1, #63
.L1073:
	ldrb	r2, [r3, #1]!	@ zero_extendqisi2
	cmp	r3, r1
	strb	r2, [r0, #1]!
	bne	.L1073
	bx	lr
	.size	m2_saveotpvalue, .-m2_saveotpvalue
	.align	2
	.global	m2_getotpparam
	.syntax unified
	.arm
	.type	m2_getotpparam, %function
m2_getotpparam:
	@ args = 0, pretend = 0, frame = 0
	@ frame_needed = 0, uses_anonymous_args = 0
	push	{r4, r5, r6, r7, r8, lr}
	movw	r8, #:lower16:.LC160
	mov	r6, r0
	mov	r4, r1
	movt	r8, #:upper16:.LC160
	mov	r5, #0
.L1077:
	mov	r1, r5
	mov	r0, r8
	bl	NAND_Print_DBG
	mov	r0, r6
	add	r5, r5, #1
	bl	m2_vender_get_param_otp_hynix
	subs	r7, r0, #0
	beq	.L1076
	cmp	r5, #5
	bne	.L1077
	movw	r0, #:lower16:.LC188
	movt	r0, #:upper16:.LC188
	bl	NAND_Print
	mov	r0, r7
	pop	{r4, r5, r6, r7, r8, pc}
.L1076:
	add	r0, r4, #8
	add	ip, r6, #47
	add	lr, r6, #111
.L1080:
	sub	r3, r0, #8
	mov	r2, ip
.L1079:
	ldrb	r1, [r2, #1]!	@ zero_extendqisi2
	strb	r1, [r3], #1
	cmp	r3, r0
	bne	.L1079
	add	ip, ip, #8
	add	r0, r3, #8
	cmp	ip, lr
	bne	.L1080
	mov	r0, #0
	pop	{r4, r5, r6, r7, r8, pc}
	.size	m2_getotpparam, .-m2_getotpparam
	.align	2
	.global	m2_setdefaultparam
	.syntax unified
	.arm
	.type	m2_setdefaultparam, %function
m2_setdefaultparam:
	@ args = 0, pretend = 0, frame = 8
	@ frame_needed = 0, uses_anonymous_args = 0
	push	{r4, r5, r6, r7, r8, lr}
	movw	r6, #:lower16:.LANCHOR0
	movt	r6, #:upper16:.LANCHOR0
	sub	sp, sp, #8
	ldrb	r3, [r6, #212]	@ zero_extendqisi2
	cmp	r3, #0
	beq	.L1090
	add	lr, r3, #47
	add	r2, r0, #47
	add	lr, r0, lr
	sub	r1, sp, #1
.L1091:
	ldrb	ip, [r2, #1]!	@ zero_extendqisi2
	cmp	r2, lr
	strb	ip, [r1, #1]!
	bne	.L1091
.L1090:
	ldr	r2, .L1102
	mov	r1, sp
	bl	m2_vender_set_param
	mov	r8, r0
	movw	r0, #:lower16:.LC136
	movt	r0, #:upper16:.LC136
	bl	NAND_Print_DBG
	ldrb	r3, [r6, #212]	@ zero_extendqisi2
	cmp	r3, #0
	beq	.L1094
	movw	r7, #:lower16:.LC137
	sub	r5, sp, #1
	movt	r7, #:upper16:.LC137
	mov	r4, #0
.L1093:
	ldrb	r1, [r5, #1]!	@ zero_extendqisi2
	mov	r0, r7
	bl	NAND_Print_DBG
	ldrb	r3, [r6, #212]	@ zero_extendqisi2
	add	r4, r4, #1
	cmp	r3, r4
	bhi	.L1093
.L1094:
	movw	r0, #:lower16:.LC132
	movt	r0, #:upper16:.LC132
	bl	NAND_Print_DBG
	mov	r0, r8
	add	sp, sp, #8
	@ sp needed
	pop	{r4, r5, r6, r7, r8, pc}
.L1103:
	.align	2
.L1102:
	.word	.LANCHOR0+228
	.size	m2_setdefaultparam, .-m2_setdefaultparam
	.align	2
	.global	m2_init_readretry_param
	.syntax unified
	.arm
	.type	m2_init_readretry_param, %function
m2_init_readretry_param:
	@ args = 0, pretend = 0, frame = 168
	@ frame_needed = 0, uses_anonymous_args = 0
	ldr	r3, [r0, #252]
	push	{r4, r5, r6, r7, r8, r9, r10, fp, lr}
	mov	r5, r0
	sub	sp, sp, #188
	ldr	r0, [r3, #12]
	lsl	r0, r0, #9
	bl	nand_get_temp_buf
	subs	r7, r0, #0
	beq	.L1130
	movw	r2, #:lower16:.LC162
	movw	r3, #:lower16:.LANCHOR0
	movt	r2, #:upper16:.LC162
	add	r4, sp, #120
	mov	r10, r2
	movt	r3, #:upper16:.LANCHOR0
	str	r3, [sp, #20]
.L1105:
	movw	r3, #:lower16:.LC163
	mov	r6, #8
	mov	r9, #0
	movt	r3, #:upper16:.LC163
	str	r3, [sp, #16]
.L1121:
	ldr	r1, [r5, #16]
	mov	r3, #16
	ldr	r2, [r5, #28]
	add	r0, sp, #28
	str	r3, [sp, #52]
	str	r1, [sp, #28]
	str	r2, [sp, #40]
	str	r6, [sp, #32]
	str	r9, [sp, #36]
	str	r7, [sp, #44]
	str	r4, [sp, #48]
	bl	m0_read_page
	ldr	r1, [r5, #248]
	mov	r8, r0
	ldrb	ip, [sp, #122]	@ zero_extendqisi2
	mov	r0, r10
	ldrb	fp, [sp, #123]	@ zero_extendqisi2
	ldr	r1, [r1, #8]
	ldrb	lr, [sp, #121]	@ zero_extendqisi2
	str	ip, [sp, #8]
	ldrb	ip, [sp, #120]	@ zero_extendqisi2
	ldr	r3, [sp, #32]
	ldr	r2, [sp, #28]
	str	fp, [sp, #12]
	stm	sp, {ip, lr}
	bl	NAND_Print_DBG
	cmp	r8, #0
	blt	.L1107
	ldrb	r3, [sp, #120]	@ zero_extendqisi2
	cmp	r3, #0
	bne	.L1107
	ldrb	r3, [sp, #121]	@ zero_extendqisi2
	cmp	r3, #79
	beq	.L1134
.L1107:
	add	r6, r6, #1
	cmp	r6, #12
	bne	.L1121
	ldr	r3, [r5, #248]
	movw	r0, #:lower16:.LC170
	movt	r0, #:upper16:.LC170
	ldr	r1, [r3, #8]
	bl	NAND_Print_DBG
	add	r1, sp, #56
	mov	r0, r5
	bl	m2_getotpparam
	cmp	r0, #0
	bne	.L1135
	mov	r0, r5
	bl	m2_setdefaultparam
	add	r3, sp, #56
	sub	r0, r7, #1
	add	r1, r7, #63
.L1116:
	mov	r2, r3
	ldrb	ip, [r3], #1	@ zero_extendqisi2
	strb	ip, [r0, #1]!
	cmp	r4, r3
	ldrb	r2, [r2]	@ zero_extendqisi2
	mvn	r2, r2
	strb	r2, [r1, #1]!
	bne	.L1116
	mov	r2, #0
	mov	r3, #79
	mov	r1, #66
	mov	r0, r5
	movw	fp, #:lower16:.LC166
	movw	r9, #:lower16:.LC165
	mov	r8, r2
	strb	r2, [sp, #120]
	strb	r3, [sp, #121]
	movt	fp, #:upper16:.LC166
	strb	r3, [sp, #122]
	movt	r9, #:upper16:.LC165
	strb	r1, [sp, #123]
	mov	r6, #8
	bl	m2_lsb_init
	mov	r0, r5
	bl	m2_lsb_enable
.L1119:
	ldr	r1, [r5, #16]
	mov	r3, #16
	ldr	r2, [r5, #28]
	add	r0, sp, #28
	str	r6, [sp, #32]
	str	r8, [sp, #36]
	str	r7, [sp, #44]
	str	r4, [sp, #48]
	str	r1, [sp, #28]
	str	r2, [sp, #40]
	str	r3, [sp, #52]
	bl	m0_erase_block
	cmp	r0, #0
	add	r0, sp, #28
	blt	.L1136
	bl	m0_write_page
	cmp	r0, #0
	blt	.L1137
.L1118:
	add	r6, r6, #1
	cmp	r6, #12
	bne	.L1119
	ldr	r2, .L1141
	mov	r0, r5
	ldr	r3, [sp, #20]
	add	r1, r2, #8
	ldrb	r3, [r3, #213]	@ zero_extendqisi2
	bl	m2_vender_set_param
	mov	r0, r5
	bl	m2_lsb_exit
	ldr	r3, [r5, #248]
	movw	r0, #:lower16:.LC190
	movt	r0, #:upper16:.LC190
	ldr	r1, [r3, #8]
	bl	NAND_Print_DBG
	b	.L1105
.L1136:
	ldr	r2, [sp, #32]
	mov	r0, r9
	ldr	r1, [sp, #28]
	bl	NAND_Print
	b	.L1118
.L1134:
	ldrb	r3, [sp, #122]	@ zero_extendqisi2
	cmp	r3, #79
	bne	.L1107
	ldrb	r3, [sp, #123]	@ zero_extendqisi2
	cmp	r3, #66
	bne	.L1107
	sub	r8, r7, #1
	add	fp, r7, #63
	mov	r1, r8
	mov	r0, fp
	b	.L1109
.L1108:
	cmp	fp, r1
	beq	.L1138
.L1109:
	ldrb	r3, [r0, #1]!	@ zero_extendqisi2
	ldrb	r2, [r1, #1]!	@ zero_extendqisi2
	add	r3, r3, r2
	cmp	r3, #255
	beq	.L1108
	ldr	r0, [sp, #16]
	bl	NAND_Print_DBG
	b	.L1107
.L1137:
	ldr	r3, [sp, #36]
	mov	r0, fp
	ldr	r2, [sp, #32]
	ldr	r1, [sp, #28]
	bl	NAND_Print
	b	.L1118
.L1135:
	mov	r6, r0
.L1115:
	ldr	r3, [r5, #252]
	mov	r0, r7
	ldr	r1, [r3, #12]
	lsl	r1, r1, #9
	bl	nand_free_temp_buf
	mov	r0, r6
.L1131:
	add	sp, sp, #188
	@ sp needed
	pop	{r4, r5, r6, r7, r8, r9, r10, fp, pc}
.L1138:
	mov	r3, r8
	b	.L1111
.L1139:
	cmp	fp, r3
	beq	.L1107
.L1111:
	ldrb	r2, [r3, #1]!	@ zero_extendqisi2
	cmp	r2, #0
	beq	.L1139
	ldr	r1, [r5, #248]
	movw	r0, #:lower16:.LC168
	ldr	r3, [sp, #32]
	movt	r0, #:upper16:.LC168
	ldr	r2, [sp, #28]
	movw	r9, #:lower16:.LC164
	ldr	r1, [r1, #8]
	movw	r10, #:lower16:.LC132
	bl	NAND_Print_DBG
	ldr	r3, [r5, #248]
	movw	r0, #:lower16:.LC169
	ldr	r2, [sp, #28]
	movt	r9, #:upper16:.LC164
	movt	r0, #:upper16:.LC169
	movt	r10, #:upper16:.LC132
	ldr	r1, [r3, #8]
	mov	r6, r7
	mov	r4, #0
	bl	NAND_Print_DBG
	ldrb	r1, [r7]	@ zero_extendqisi2
	mov	r0, r9
	bl	NAND_Print_DBG
.L1120:
	add	r4, r4, #1
	mov	r0, r9
	cmp	r4, #64
	beq	.L1140
.L1113:
	ldrb	r1, [r6, #1]!	@ zero_extendqisi2
	bl	NAND_Print_DBG
	and	r3, r4, #7
	cmp	r3, #7
	bne	.L1120
	mov	r0, r10
	add	r4, r4, #1
	bl	NAND_Print_DBG
	cmp	r4, #64
	mov	r0, r9
	bne	.L1113
.L1140:
	add	r3, r5, #47
.L1114:
	ldrb	r2, [r8, #1]!	@ zero_extendqisi2
	cmp	fp, r8
	strb	r2, [r3, #1]!
	bne	.L1114
	mov	r0, r5
	bl	m2_setdefaultparam
	mov	r6, r0
	b	.L1115
.L1130:
	movw	r0, #:lower16:.LC189
	movt	r0, #:upper16:.LC189
	bl	NAND_Print_DBG
	mvn	r0, #93
	b	.L1131
.L1142:
	.align	2
.L1141:
	.word	.LANCHOR0+216
	.size	m2_init_readretry_param, .-m2_init_readretry_param
	.align	2
	.global	m2_readretry_init
	.syntax unified
	.arm
	.type	m2_readretry_init, %function
m2_readretry_init:
	@ args = 0, pretend = 0, frame = 0
	@ frame_needed = 0, uses_anonymous_args = 0
	ldr	r2, [r0, #252]
	movw	r3, #:lower16:.LANCHOR0
	movt	r3, #:upper16:.LANCHOR0
	push	{r4, r5, r6, lr}
	ldr	r2, [r2, #40]
	ubfx	r1, r2, #16, #8
	strb	r2, [r3, #212]
	cmp	r1, #2
	lsr	r2, r2, #8
	strb	r1, [r3, #210]
	strb	r2, [r3, #211]
	beq	.L1153
	cmp	r1, #3
	bne	.L1146
	mvn	r1, #79
	mvn	r2, #78
	strb	r1, [r3, #228]
	mvn	r5, #77
	strb	r2, [r3, #229]
	mvn	r4, #76
	mvn	lr, #75
	mvn	ip, #74
	mvn	r1, #73
	mvn	r2, #72
.L1152:
	strb	ip, [r3, #233]
	mov	ip, #0
	strb	r1, [r3, #234]
	mov	r1, ip
	strb	r2, [r3, #235]
	add	r2, r0, #175
	strb	r5, [r3, #230]
	strb	r4, [r3, #231]
	strb	lr, [r3, #232]
	add	r3, r0, #47
	str	ip, [r0, #176]
.L1148:
	strb	r1, [r3, #1]!
	cmp	r3, r2
	bne	.L1148
	pop	{r4, r5, r6, lr}
	b	m2_init_readretry_param
.L1153:
	mvn	r1, #51
	mvn	r2, #64
	strb	r1, [r3, #228]
	mvn	r5, #85
	strb	r2, [r3, #229]
	mvn	r4, #84
	mvn	lr, #50
	mvn	ip, #82
	mvn	r1, #81
	mvn	r2, #80
	b	.L1152
.L1146:
	movw	r0, #:lower16:.LC139
	movt	r0, #:upper16:.LC139
	bl	NAND_Print
	mvn	r0, #92
	pop	{r4, r5, r6, pc}
	.size	m2_readretry_init, .-m2_readretry_init
	.align	2
	.global	m2_readretry_exit
	.syntax unified
	.arm
	.type	m2_readretry_exit, %function
m2_readretry_exit:
	@ args = 0, pretend = 0, frame = 0
	@ frame_needed = 0, uses_anonymous_args = 0
	push	{r4, lr}
	mov	r4, r0
	movw	r0, #:lower16:.LC191
	movt	r0, #:upper16:.LC191
	bl	NAND_Print_DBG
	mov	r0, r4
	bl	m2_setdefaultparam
	mov	r0, #0
	str	r0, [r4, #176]
	pop	{r4, pc}
	.size	m2_readretry_exit, .-m2_readretry_exit
	.align	2
	.global	m2_set_readretry
	.syntax unified
	.arm
	.type	m2_set_readretry, %function
m2_set_readretry:
	@ args = 0, pretend = 0, frame = 8
	@ frame_needed = 0, uses_anonymous_args = 0
	push	{r4, r5, r6, r7, r8, lr}
	movw	r6, #:lower16:.LANCHOR0
	movt	r6, #:upper16:.LANCHOR0
	ldr	ip, [r0, #176]
	sub	sp, sp, #8
	ldrb	r3, [r6, #211]	@ zero_extendqisi2
	cmp	ip, r3
	bhi	.L1163
	ldrb	r3, [r6, #212]	@ zero_extendqisi2
	cmp	r3, #0
	moveq	r1, sp
	beq	.L1158
	add	ip, r0, ip, lsl #3
	sub	r4, r3, #1
	mov	r1, sp
	add	ip, ip, #47
	add	r4, sp, r4
	sub	r2, sp, #1
.L1159:
	ldrb	lr, [ip, #1]!	@ zero_extendqisi2
	strb	lr, [r2, #1]!
	cmp	r2, r4
	bne	.L1159
.L1158:
	ldr	r2, .L1170
	bl	m2_vender_set_param
	mov	r8, r0
	movw	r0, #:lower16:.LC192
	movt	r0, #:upper16:.LC192
	bl	NAND_Print_DBG
	ldrb	r3, [r6, #212]	@ zero_extendqisi2
	cmp	r3, #0
	movwne	r7, #:lower16:.LC133
	subne	r5, sp, #1
	movtne	r7, #:upper16:.LC133
	movne	r4, #0
	beq	.L1162
.L1161:
	ldrb	r1, [r5, #1]!	@ zero_extendqisi2
	mov	r0, r7
	bl	NAND_Print
	ldrb	r3, [r6, #212]	@ zero_extendqisi2
	add	r4, r4, #1
	cmp	r3, r4
	bhi	.L1161
.L1162:
	movw	r0, #:lower16:.LC132
	movt	r0, #:upper16:.LC132
	bl	NAND_Print_DBG
	mov	r0, r8
.L1157:
	add	sp, sp, #8
	@ sp needed
	pop	{r4, r5, r6, r7, r8, pc}
.L1163:
	mvn	r0, #91
	b	.L1157
.L1171:
	.align	2
.L1170:
	.word	.LANCHOR0+228
	.size	m2_set_readretry, .-m2_set_readretry
	.align	2
	.global	m2_read_page_end
	.syntax unified
	.arm
	.type	m2_read_page_end, %function
m2_read_page_end:
	@ args = 0, pretend = 0, frame = 0
	@ frame_needed = 0, uses_anonymous_args = 0
	movw	r3, #:lower16:g_nsi
	push	{r4, r5, r6, r7, r8, r9, r10, fp, lr}
	movt	r3, #:upper16:g_nsi
	ldr	r1, [r0]
	sub	sp, sp, #12
	mov	r4, r0
	ldr	r0, [r3]
	bl	nci_get_from_nsi
	mov	r5, r0
	mov	r0, r4
	bl	m0_read_page_end_not_retry
	cmn	r0, #2
	mov	r10, r0
	beq	.L1194
	mov	r0, r10
	add	sp, sp, #12
	@ sp needed
	pop	{r4, r5, r6, r7, r8, r9, r10, fp, pc}
.L1194:
	movw	r0, #:lower16:.LC193
	movw	r7, #:lower16:.LANCHOR0
	movt	r0, #:upper16:.LC193
	movt	r7, #:upper16:.LANCHOR0
	bl	NAND_Print_DBG
	ldrb	r2, [r7, #211]	@ zero_extendqisi2
	cmp	r2, #0
	beq	.L1174
	mov	r6, #0
	movw	r9, #:lower16:.LC117
	mov	r8, r6
	movt	r9, #:upper16:.LC117
.L1182:
	ldr	r3, [r5, #176]
	mov	r0, r5
	add	r3, r3, #1
	cmp	r3, r2
	movhi	r3, r8
	str	r3, [r5, #176]
	bl	m2_set_readretry
	subs	r10, r0, #0
	bne	.L1195
	mov	r0, r4
	bl	m0_read_page_start
	mov	fp, r0
	mov	r0, r4
	bl	m0_read_page_end_not_retry
	ldr	lr, [r4, #20]
	orr	r0, fp, r0
	mov	ip, r10
	sub	r3, lr, #1
	add	r1, lr, #9
.L1179:
	ldrb	r2, [r3, #1]!	@ zero_extendqisi2
	cmp	r2, #255
	addeq	ip, ip, #1
	cmp	r3, r1
	bne	.L1179
	cmp	ip, #8
	bls	.L1180
	ldrb	r3, [lr]	@ zero_extendqisi2
	cmp	r3, #255
	beq	.L1196
.L1180:
	cmp	r0, #0
	cmpne	r0, #10
	beq	.L1197
.L1183:
	ldrb	r2, [r7, #211]	@ zero_extendqisi2
	add	r6, r6, #1
	cmp	r2, r6
	bgt	.L1182
	mov	r10, r0
.L1174:
	mov	r3, #0
	mov	r0, r5
	str	r3, [r5, #176]
	bl	m2_set_readretry
	mov	r0, r10
	add	sp, sp, #12
	@ sp needed
	pop	{r4, r5, r6, r7, r8, r9, r10, fp, pc}
.L1196:
	ldr	r1, [r5, #248]
	mov	r0, r9
	ldr	lr, [r5, #176]
	ldr	ip, [r4, #8]
	ldr	r3, [r4, #4]
	ldr	r2, [r5, #20]
	ldr	r1, [r1, #8]
	stm	sp, {ip, lr}
	bl	NAND_Print
	mvn	r0, #1
	b	.L1183
.L1195:
	mov	r3, #0
	mov	r0, r5
	str	r3, [r5, #176]
	bl	m2_set_readretry
	b	.L1174
.L1197:
	ldrb	ip, [lr, #4]	@ zero_extendqisi2
	movw	r0, #:lower16:.LC194
	ldrb	r3, [lr, #3]	@ zero_extendqisi2
	movt	r0, #:upper16:.LC194
	ldrb	r2, [lr, #2]	@ zero_extendqisi2
	mov	r10, #10
	ldrb	r1, [lr, #1]	@ zero_extendqisi2
	str	ip, [sp]
	bl	NAND_Print_DBG
	ldr	r2, [r5, #248]
	movw	r0, #:lower16:.LC195
	ldr	lr, [r4, #8]
	movt	r0, #:upper16:.LC195
	ldr	ip, [r5, #176]
	ldr	r1, [r2, #8]
	ldr	r3, [r4, #4]
	ldr	r2, [r5, #20]
	str	lr, [sp]
	str	ip, [sp, #4]
	bl	NAND_Print
	b	.L1174
	.size	m2_read_page_end, .-m2_read_page_end
	.align	2
	.global	m2_special_init
	.syntax unified
	.arm
	.type	m2_special_init, %function
m2_special_init:
	@ args = 0, pretend = 0, frame = 0
	@ frame_needed = 0, uses_anonymous_args = 0
	movw	r3, #:lower16:g_nsi
	push	{r4, r5, r6, lr}
	movt	r3, #:upper16:g_nsi
	ldr	r3, [r3]
	ldr	r4, [r3, #8]
	cmp	r4, #0
	beq	.L1199
	mov	r5, #0
.L1200:
	mov	r0, r4
	bl	m2_readretry_init
	ldr	r4, [r4]
	orr	r5, r5, r0
	cmp	r4, #0
	bne	.L1200
	cmp	r5, #0
	beq	.L1199
	movw	r1, #:lower16:.LANCHOR0
	movw	r0, #:lower16:.LC197
	movt	r1, #:upper16:.LANCHOR0
	movt	r0, #:upper16:.LC197
	ldrb	r3, [r1, #212]	@ zero_extendqisi2
	ldrb	r2, [r1, #211]	@ zero_extendqisi2
	ldrb	r1, [r1, #210]	@ zero_extendqisi2
	bl	NAND_Print
	mov	r0, r5
	pop	{r4, r5, r6, pc}
.L1199:
	movw	r1, #:lower16:.LANCHOR0
	movw	ip, #:lower16:function_read_page_end
	movt	r1, #:upper16:.LANCHOR0
	movw	lr, #:lower16:m2_read_page_end
	movw	r0, #:lower16:.LC196
	ldrb	r3, [r1, #212]	@ zero_extendqisi2
	ldrb	r2, [r1, #211]	@ zero_extendqisi2
	movt	ip, #:upper16:function_read_page_end
	movt	lr, #:upper16:m2_read_page_end
	ldrb	r1, [r1, #210]	@ zero_extendqisi2
	mov	r5, #0
	movt	r0, #:upper16:.LC196
	str	lr, [ip]
	bl	NAND_Print_DBG
	mov	r0, r5
	pop	{r4, r5, r6, pc}
	.size	m2_special_init, .-m2_special_init
	.align	2
	.global	m2_special_exit
	.syntax unified
	.arm
	.type	m2_special_exit, %function
m2_special_exit:
	@ args = 0, pretend = 0, frame = 0
	@ frame_needed = 0, uses_anonymous_args = 0
	movw	r3, #:lower16:g_nsi
	push	{r4, r5, r6, lr}
	movt	r3, #:upper16:g_nsi
	ldr	r3, [r3]
	ldr	r4, [r3, #8]
	cmp	r4, #0
	beq	.L1211
	movw	r5, #:lower16:.LC191
	mov	r6, #0
	movt	r5, #:upper16:.LC191
.L1210:
	mov	r0, r5
	bl	NAND_Print_DBG
	mov	r0, r4
	bl	m2_setdefaultparam
	str	r6, [r4, #176]
	ldr	r4, [r4]
	cmp	r4, #0
	bne	.L1210
.L1211:
	movw	r0, #:lower16:.LC198
	movt	r0, #:upper16:.LC198
	bl	NAND_Print_DBG
	mov	r0, #0
	pop	{r4, r5, r6, pc}
	.size	m2_special_exit, .-m2_special_exit
	.align	2
	.global	m2_is_lsb_page
	.syntax unified
	.arm
	.type	m2_is_lsb_page, %function
m2_is_lsb_page:
	@ args = 0, pretend = 0, frame = 0
	@ frame_needed = 0, uses_anonymous_args = 0
	@ link register save eliminated.
	cmp	r0, #1
	bls	.L1217
	movw	r3, #:lower16:g_nsi
	movt	r3, #:upper16:g_nsi
	ldr	r3, [r3]
	ldr	r3, [r3, #8]
	ldr	r3, [r3, #252]
	ldr	r3, [r3, #16]
	sub	r2, r3, #2
	cmp	r0, r2
	beq	.L1219
	sub	r3, r3, #1
	cmp	r0, r3
	beq	.L1219
	and	r0, r0, #3
	sub	r0, r0, #2
	cmp	r0, #1
	movhi	r0, #0
	movls	r0, #1
	bx	lr
.L1219:
	mov	r0, #0
	bx	lr
.L1217:
	mov	r0, #1
	bx	lr
	.size	m2_is_lsb_page, .-m2_is_lsb_page
	.align	2
	.global	m4_0x40_is_lsb_page
	.syntax unified
	.arm
	.type	m4_0x40_is_lsb_page, %function
m4_0x40_is_lsb_page:
	@ args = 0, pretend = 0, frame = 0
	@ frame_needed = 0, uses_anonymous_args = 0
	@ link register save eliminated.
	b	m2_is_lsb_page
	.size	m4_0x40_is_lsb_page, .-m4_0x40_is_lsb_page
	.align	2
	.global	m3_is_lsb_page
	.syntax unified
	.arm
	.type	m3_is_lsb_page, %function
m3_is_lsb_page:
	@ args = 0, pretend = 0, frame = 0
	@ frame_needed = 0, uses_anonymous_args = 0
	@ link register save eliminated.
	b	m2_is_lsb_page
	.size	m3_is_lsb_page, .-m3_is_lsb_page
	.align	2
	.global	m9_dsp_on
	.syntax unified
	.arm
	.type	m9_dsp_on, %function
m9_dsp_on:
	@ args = 0, pretend = 0, frame = 0
	@ frame_needed = 0, uses_anonymous_args = 0
	movw	r3, #:lower16:g_nsi
	push	{r4, lr}
	movt	r3, #:upper16:g_nsi
	ldr	r1, [r0]
	ldr	r0, [r3]
	bl	nci_get_from_nsi
	mov	r4, r0
	bl	nand_enable_chip
	ldr	r0, [r4, #248]
	bl	ndfc_disable_randomize
	mov	r2, #0
	mov	r1, #38
	mov	r0, r4
	bl	set_one_cmd
	mov	r0, r4
	bl	nand_disable_chip
	mov	r0, #0
	pop	{r4, pc}
	.size	m9_dsp_on, .-m9_dsp_on
	.align	2
	.global	m9_cmd25
	.syntax unified
	.arm
	.type	m9_cmd25, %function
m9_cmd25:
	@ args = 0, pretend = 0, frame = 0
	@ frame_needed = 0, uses_anonymous_args = 0
	movw	r3, #:lower16:g_nsi
	push	{r4, lr}
	movt	r3, #:upper16:g_nsi
	ldr	r1, [r0]
	ldr	r0, [r3]
	bl	nci_get_from_nsi
	mov	r4, r0
	bl	nand_enable_chip
	ldr	r0, [r4, #248]
	bl	ndfc_disable_randomize
	mov	r2, #0
	mov	r1, #37
	mov	r0, r4
	bl	set_one_cmd
	mov	r0, r4
	bl	nand_disable_chip
	mov	r0, #0
	pop	{r4, pc}
	.size	m9_cmd25, .-m9_cmd25
	.align	2
	.global	m9_set_lmflgfix_next
	.syntax unified
	.arm
	.type	m9_set_lmflgfix_next, %function
m9_set_lmflgfix_next:
	@ args = 0, pretend = 0, frame = 8
	@ frame_needed = 0, uses_anonymous_args = 0
	movw	r3, #:lower16:g_nsi
	push	{r4, r5, r6, r7, r8, lr}
	movt	r3, #:upper16:g_nsi
	sub	sp, sp, #24
	mov	r6, r1
	add	r7, sp, #22
	ldr	r1, [r0]
	ldr	r0, [r3]
	bl	nci_get_from_nsi
	mov	r4, r0
	bl	nand_enable_chip
	ldr	r0, [r4, #248]
	bl	ndfc_disable_randomize
	mov	r2, #0
	mov	r1, #92
	mov	r0, r4
	bl	set_one_cmd
	mov	r2, #0
	mov	r1, #197
	mov	r0, r4
	bl	set_one_cmd
	mov	ip, #1
	add	r3, sp, #21
	str	ip, [sp, #8]
	mov	r2, ip
	str	ip, [sp, #4]
	mov	lr, #0
	strb	ip, [sp, #22]
	mov	r0, r4
	mov	ip, #85
	add	r1, sp, #23
	str	r7, [sp]
	strb	lr, [sp, #21]
	strb	ip, [sp, #23]
	bl	set_cmd_with_nand_bus
	movw	r3, #:lower16:.LANCHOR0
	movt	r3, #:upper16:.LANCHOR0
	ldrb	r3, [r3, #236]	@ zero_extendqisi2
	cmp	r3, #52
	moveq	r3, #34
	strbeq	r3, [sp, #21]
	beq	.L1228
	cmp	r3, #53
	moveq	r3, #37
	movne	r3, #35
	strb	r3, [sp, #21]
.L1228:
	mov	r5, #1
	mov	r8, #85
	mov	r2, r5
	add	r3, sp, #21
	add	r1, sp, #23
	str	r7, [sp]
	str	r5, [sp, #8]
	mov	r0, r4
	str	r5, [sp, #4]
	strb	r6, [sp, #22]
	mov	r6, #0
	strb	r8, [sp, #23]
	bl	set_cmd_with_nand_bus
	mov	r2, r5
	add	r3, sp, #21
	add	r1, sp, #23
	str	r5, [sp, #8]
	str	r5, [sp, #4]
	mov	r0, r4
	str	r7, [sp]
	strb	r8, [sp, #23]
	strb	r6, [sp, #21]
	strb	r6, [sp, #22]
	bl	set_cmd_with_nand_bus
	mov	r0, r4
	bl	nand_disable_chip
	mov	r0, r6
	add	sp, sp, #24
	@ sp needed
	pop	{r4, r5, r6, r7, r8, pc}
	.size	m9_set_lmflgfix_next, .-m9_set_lmflgfix_next
	.align	2
	.global	m9_readretry_init
	.syntax unified
	.arm
	.type	m9_readretry_init, %function
m9_readretry_init:
	@ args = 0, pretend = 0, frame = 0
	@ frame_needed = 0, uses_anonymous_args = 0
	ldr	r3, [r0, #252]
	movw	r2, #:lower16:.LANCHOR0
	push	{r4, lr}
	mov	r4, #0
	movt	r2, #:upper16:.LANCHOR0
	str	r4, [r0, #176]
	ldr	r3, [r3, #40]
	ubfx	r1, r3, #16, #8
	strb	r3, [r2, #238]
	sub	r0, r1, #50
	lsr	r3, r3, #8
	cmp	r0, #3
	strb	r1, [r2, #236]
	strb	r3, [r2, #237]
	bhi	.L1235
	movw	r0, #:lower16:.LC200
	uxtb	r1, r3
	movt	r0, #:upper16:.LC200
	bl	NAND_Print
	mov	r0, r4
	pop	{r4, pc}
.L1235:
	movw	r0, #:lower16:.LC199
	movt	r0, #:upper16:.LC199
	bl	NAND_Print
	mvn	r0, #98
	pop	{r4, pc}
	.size	m9_readretry_init, .-m9_readretry_init
	.align	2
	.global	m9_readretry_exit
	.syntax unified
	.arm
	.type	m9_readretry_exit, %function
m9_readretry_exit:
	@ args = 0, pretend = 0, frame = 0
	@ frame_needed = 0, uses_anonymous_args = 0
	@ link register save eliminated.
	mov	r0, #0
	bx	lr
	.size	m9_readretry_exit, .-m9_readretry_exit
	.align	2
	.global	m9_read_retry_clock_save
	.syntax unified
	.arm
	.type	m9_read_retry_clock_save, %function
m9_read_retry_clock_save:
	@ args = 0, pretend = 0, frame = 0
	@ frame_needed = 0, uses_anonymous_args = 0
	ldr	r3, [r0, #248]
	movw	r1, #:lower16:.LANCHOR0
	movt	r1, #:upper16:.LANCHOR0
	push	{r4, lr}
	add	r2, r1, #240
	mov	r4, r0
	add	r1, r1, #244
	ldr	r0, [r3, #8]
	bl	NAND_GetClk
	ldr	r3, [r4, #248]
	mov	r2, #20
	mov	r1, #10
	ldr	r0, [r3, #8]
	bl	NAND_SetClk
	mov	r0, #0
	pop	{r4, pc}
	.size	m9_read_retry_clock_save, .-m9_read_retry_clock_save
	.align	2
	.global	m9_read_retry_clock_recover
	.syntax unified
	.arm
	.type	m9_read_retry_clock_recover, %function
m9_read_retry_clock_recover:
	@ args = 0, pretend = 0, frame = 0
	@ frame_needed = 0, uses_anonymous_args = 0
	ldr	r1, [r0, #248]
	movw	r3, #:lower16:.LANCHOR0
	movt	r3, #:upper16:.LANCHOR0
	push	{r4, lr}
	ldr	r2, [r3, #240]
	ldr	r0, [r1, #8]
	ldr	r1, [r3, #244]
	bl	NAND_SetClk
	mov	r0, #0
	pop	{r4, pc}
	.size	m9_read_retry_clock_recover, .-m9_read_retry_clock_recover
	.align	2
	.global	m9_vender_set_param
	.syntax unified
	.arm
	.type	m9_vender_set_param, %function
m9_vender_set_param:
	@ args = 0, pretend = 0, frame = 0
	@ frame_needed = 0, uses_anonymous_args = 0
	str	lr, [sp, #-4]!
	mov	ip, #1
	sub	sp, sp, #20
	mov	lr, #4
	mov	r3, r2
	mov	r2, ip
	str	r1, [sp]
	str	ip, [sp, #8]
	str	lr, [sp, #4]
	ldr	r1, .L1243
	bl	set_cmd_with_nand_bus
	add	sp, sp, #20
	@ sp needed
	ldr	pc, [sp], #4
.L1244:
	.align	2
.L1243:
	.word	.LANCHOR1+532
	.size	m9_vender_set_param, .-m9_vender_set_param
	.align	2
	.global	m9_set_readretry
	.syntax unified
	.arm
	.type	m9_set_readretry, %function
m9_set_readretry:
	@ args = 0, pretend = 0, frame = 0
	@ frame_needed = 0, uses_anonymous_args = 0
	push	{r4, r5, lr}
	mov	r4, r0
	sub	sp, sp, #20
	bl	nand_enable_chip
	ldr	r0, [r4, #248]
	bl	ndfc_disable_randomize
	movw	r3, #:lower16:.LANCHOR0
	movt	r3, #:upper16:.LANCHOR0
	ldrb	r3, [r3, #236]	@ zero_extendqisi2
	cmp	r3, #52
	beq	.L1250
	cmp	r3, #53
	ldr	r3, [r4, #176]
	ldreq	r1, .L1251
	ldrne	r1, .L1251+4
	add	r1, r1, r3, lsl #2
.L1247:
	ldr	r3, .L1251+8
	mov	r2, #1
	mov	r0, #4
	str	r1, [sp]
	str	r2, [sp, #8]
	sub	r1, r3, #380
	str	r0, [sp, #4]
	mov	r0, r4
	bl	set_cmd_with_nand_bus
	mov	r2, #0
	mov	r5, r0
	mov	r1, #93
	mov	r0, r4
	bl	set_one_cmd
	mov	r0, r4
	bl	nand_disable_chip
	mov	r0, r5
	add	sp, sp, #20
	@ sp needed
	pop	{r4, r5, pc}
.L1250:
	ldr	r1, .L1251+12
	ldr	r3, [r4, #176]
	add	r1, r1, r3, lsl #2
	b	.L1247
.L1252:
	.align	2
.L1251:
	.word	.LANCHOR1+664
	.word	.LANCHOR1+788
	.word	.LANCHOR1+912
	.word	.LANCHOR1+536
	.size	m9_set_readretry, .-m9_set_readretry
	.align	2
	.global	m9_exit_readretry
	.syntax unified
	.arm
	.type	m9_exit_readretry, %function
m9_exit_readretry:
	@ args = 0, pretend = 0, frame = 8
	@ frame_needed = 0, uses_anonymous_args = 0
	push	{r4, r5, lr}
	sub	sp, sp, #28
	mov	r4, r0
	mov	r3, #0
	add	r5, sp, #24
	str	r3, [r5, #-4]!
	bl	nand_enable_chip
	ldr	r0, [r4, #248]
	bl	ndfc_disable_randomize
	mov	r0, r4
	mov	r2, #1
	mov	r1, #255
	bl	set_one_cmd
	movw	r1, #:lower16:.LANCHOR1
	mov	r2, #1
	mov	ip, #4
	movt	r1, #:upper16:.LANCHOR1
	add	r3, r1, #912
	str	r5, [sp]
	add	r1, r1, #532
	str	r2, [sp, #8]
	str	ip, [sp, #4]
	mov	r0, r4
	bl	set_cmd_with_nand_bus
	mov	r5, r0
	mov	r0, r4
	bl	nand_disable_chip
	mov	r0, r5
	add	sp, sp, #28
	@ sp needed
	pop	{r4, r5, pc}
	.size	m9_exit_readretry, .-m9_exit_readretry
	.align	2
	.global	m9_read_page_end
	.syntax unified
	.arm
	.type	m9_read_page_end, %function
m9_read_page_end:
	@ args = 0, pretend = 0, frame = 0
	@ frame_needed = 0, uses_anonymous_args = 0
	movw	r3, #:lower16:g_nsi
	push	{r4, r5, r6, r7, r8, r9, r10, lr}
	movt	r3, #:upper16:g_nsi
	ldr	r1, [r0]
	sub	sp, sp, #8
	mov	r5, r0
	ldr	r0, [r3]
	bl	nci_get_from_nsi
	mov	r6, r0
	mov	r0, r5
	bl	m0_read_page_end_not_retry
	cmn	r0, #2
	mov	r4, r0
	beq	.L1337
	mov	r0, r4
	add	sp, sp, #8
	@ sp needed
	pop	{r4, r5, r6, r7, r8, r9, r10, pc}
.L1337:
	movw	r0, #:lower16:.LC201
	movw	r8, #:lower16:.LANCHOR0
	movt	r0, #:upper16:.LC201
	movt	r8, #:upper16:.LANCHOR0
	bl	NAND_Print
	ldrb	r3, [r8, #237]	@ zero_extendqisi2
	cmp	r3, #0
	beq	.L1265
	movw	r10, #:lower16:.LC117
	movw	r9, #:lower16:.LC202
	movt	r10, #:upper16:.LC117
	movt	r9, #:upper16:.LC202
	mov	r7, #0
	b	.L1266
.L1339:
	mov	r0, r9
	bl	NAND_Print_DBG
.L1259:
	ldrb	r3, [r8, #237]	@ zero_extendqisi2
	add	r7, r7, #1
	cmp	r3, r7
	ble	.L1338
.L1266:
	str	r7, [r6, #176]
	mov	r0, r6
	ldrh	r1, [r5, #8]
	bl	m9_set_readretry
	subs	r4, r0, #0
	bne	.L1339
	mov	r0, r5
	bl	m0_read_page_start
	mov	r4, r0
	mov	r0, r5
	bl	m0_read_page_end_not_retry
	ldr	ip, [r5, #20]
	orr	r4, r4, r0
	mov	r0, #0
	sub	r3, ip, #1
	add	r1, ip, #9
.L1261:
	ldrb	r2, [r3, #1]!	@ zero_extendqisi2
	cmp	r2, #255
	addeq	r0, r0, #1
	cmp	r1, r3
	bne	.L1261
	cmp	r0, #8
	bls	.L1262
	ldrb	r3, [ip]	@ zero_extendqisi2
	cmp	r3, #255
	beq	.L1340
.L1262:
	cmp	r4, #0
	cmpne	r4, #10
	bne	.L1259
.L1305:
	ldr	r2, [r6, #248]
	cmp	r4, #0
	ldr	lr, [r5, #8]
	movweq	r0, #:lower16:.LC203
	ldr	ip, [r6, #176]
	movwne	r0, #:lower16:.LC204
	ldr	r1, [r2, #8]
	movteq	r0, #:upper16:.LC203
	ldreq	r3, [r5, #4]
	movtne	r0, #:upper16:.LC204
	ldrne	r3, [r5, #4]
	mov	r4, #10
	ldr	r2, [r6, #20]
	str	lr, [sp]
	str	ip, [sp, #4]
	bl	NAND_Print_DBG
.L1265:
	mov	r3, #0
	mov	r0, r6
	str	r3, [r6, #176]
	bl	m9_exit_readretry
	mov	r0, r4
	add	sp, sp, #8
	@ sp needed
	pop	{r4, r5, r6, r7, r8, r9, r10, pc}
.L1340:
	ldr	r1, [r6, #248]
	mov	r0, r10
	ldr	lr, [r6, #176]
	add	r7, r7, #1
	ldr	ip, [r5, #8]
	mvn	r4, #1
	ldr	r3, [r5, #4]
	ldr	r2, [r6, #20]
	ldr	r1, [r1, #8]
	stm	sp, {ip, lr}
	bl	NAND_Print_DBG
	ldrb	r3, [r8, #237]	@ zero_extendqisi2
	cmp	r3, r7
	bgt	.L1266
.L1338:
	ldrb	r2, [r8, #236]	@ zero_extendqisi2
	cmp	r2, #51
	beq	.L1267
	cmp	r3, #0
	beq	.L1265
	movw	r10, #:lower16:.LC117
	movw	r9, #:lower16:.LC202
	movt	r10, #:upper16:.LC117
	movt	r9, #:upper16:.LC202
	mov	r7, #0
	b	.L1278
.L1342:
	mov	r0, r9
	bl	NAND_Print_DBG
.L1272:
	ldrb	r3, [r8, #237]	@ zero_extendqisi2
	add	r7, r7, #1
	cmp	r3, r7
	ble	.L1341
.L1278:
	str	r7, [r6, #176]
	mov	r0, r6
	ldrh	r1, [r5, #8]
	bl	m9_set_readretry
	subs	r4, r0, #0
	bne	.L1342
	mov	r0, r5
	bl	m9_dsp_on
	mov	r0, r5
	bl	m0_read_page_start
	mov	r4, r0
	mov	r0, r5
	bl	m0_read_page_end_not_retry
	ldr	ip, [r5, #20]
	orr	r4, r4, r0
	mov	r0, #0
	sub	r3, ip, #1
	add	r1, ip, #9
.L1274:
	ldrb	r2, [r3, #1]!	@ zero_extendqisi2
	cmp	r2, #255
	addeq	r0, r0, #1
	cmp	r1, r3
	bne	.L1274
	cmp	r0, #8
	bls	.L1275
	ldrb	r3, [ip]	@ zero_extendqisi2
	cmp	r3, #255
	beq	.L1343
.L1275:
	cmp	r4, #0
	cmpne	r4, #10
	bne	.L1272
	b	.L1305
.L1343:
	ldr	r1, [r6, #248]
	mov	r0, r10
	ldr	lr, [r6, #176]
	mvn	r4, #1
	ldr	ip, [r5, #8]
	ldr	r3, [r5, #4]
	ldr	r2, [r6, #20]
	ldr	r1, [r1, #8]
	stm	sp, {ip, lr}
	bl	NAND_Print_DBG
	b	.L1272
.L1267:
	cmp	r3, #0
	beq	.L1265
	movw	r10, #:lower16:.LC117
	movw	r9, #:lower16:.LC202
	movt	r10, #:upper16:.LC117
	movt	r9, #:upper16:.LC202
	mov	r7, #0
.L1301:
	str	r7, [r6, #176]
	mov	r0, r6
	ldrh	r1, [r5, #8]
	bl	m9_set_readretry
	subs	r4, r0, #0
	bne	.L1344
	ldrb	r3, [r8, #236]	@ zero_extendqisi2
	cmp	r3, #52
	beq	.L1345
	cmp	r3, #53
	mov	r0, r5
	moveq	r1, #26
	movne	r1, #192
	bl	m9_set_lmflgfix_next
.L1290:
	mov	r0, r5
	bl	m9_cmd25
	ldrb	r3, [r8, #236]	@ zero_extendqisi2
	sub	r2, r3, #52
	cmp	r3, #50
	cmpne	r2, #1
	bhi	.L1292
	mov	r0, r5
	bl	m9_dsp_on
.L1292:
	mov	r0, r5
	bl	m0_read_page_start
	mov	r4, r0
	mov	r0, r5
	bl	m0_read_page_end_not_retry
	ldrb	r3, [r8, #236]	@ zero_extendqisi2
	orr	r4, r4, r0
	cmp	r3, #52
	beq	.L1346
	cmp	r3, #53
	mov	r0, r5
	moveq	r1, #10
	movne	r1, #64
	bl	m9_set_lmflgfix_next
.L1294:
	ldr	ip, [r5, #20]
	mov	r0, #0
	sub	r3, ip, #1
	add	r1, ip, #9
.L1297:
	ldrb	r2, [r3, #1]!	@ zero_extendqisi2
	cmp	r2, #255
	addeq	r0, r0, #1
	cmp	r1, r3
	bne	.L1297
	cmp	r0, #8
	bls	.L1298
	ldrb	r3, [ip]	@ zero_extendqisi2
	cmp	r3, #255
	beq	.L1347
.L1298:
	cmp	r4, #0
	cmpne	r4, #10
	beq	.L1305
.L1288:
	ldrb	r3, [r8, #237]	@ zero_extendqisi2
	add	r7, r7, #1
	cmp	r3, r7
	bgt	.L1301
	b	.L1265
.L1344:
	mov	r0, r9
	bl	NAND_Print_DBG
	b	.L1288
.L1347:
	ldr	r1, [r6, #248]
	mov	r0, r10
	ldr	lr, [r6, #176]
	mvn	r4, #1
	ldr	ip, [r5, #8]
	ldr	r3, [r5, #4]
	ldr	r2, [r6, #20]
	ldr	r1, [r1, #8]
	stm	sp, {ip, lr}
	bl	NAND_Print_DBG
	b	.L1288
.L1346:
	mov	r1, #194
	mov	r0, r5
	bl	m9_set_lmflgfix_next
	b	.L1294
.L1345:
	mov	r1, #198
	mov	r0, r5
	bl	m9_set_lmflgfix_next
	b	.L1290
.L1341:
	cmp	r3, #0
	beq	.L1265
	movw	r10, #:lower16:.LC117
	movw	r9, #:lower16:.LC202
	movt	r10, #:upper16:.LC117
	movt	r9, #:upper16:.LC202
	mov	r7, #0
	b	.L1286
.L1348:
	mov	r0, r9
	bl	NAND_Print_DBG
.L1280:
	ldrb	r3, [r8, #237]	@ zero_extendqisi2
	add	r7, r7, #1
	cmp	r3, r7
	ble	.L1267
.L1286:
	str	r7, [r6, #176]
	mov	r0, r6
	ldrh	r1, [r5, #8]
	bl	m9_set_readretry
	subs	r4, r0, #0
	bne	.L1348
	mov	r0, r5
	bl	m9_cmd25
	mov	r0, r5
	bl	m0_read_page_start
	mov	r4, r0
	mov	r0, r5
	bl	m0_read_page_end_not_retry
	ldr	ip, [r5, #20]
	orr	r4, r4, r0
	mov	r0, #0
	sub	r3, ip, #1
	add	r1, ip, #9
.L1282:
	ldrb	r2, [r3, #1]!	@ zero_extendqisi2
	cmp	r2, #255
	addeq	r0, r0, #1
	cmp	r1, r3
	bne	.L1282
	cmp	r0, #8
	bls	.L1283
	ldrb	r3, [ip]	@ zero_extendqisi2
	cmp	r3, #255
	beq	.L1349
.L1283:
	cmp	r4, #0
	cmpne	r4, #10
	bne	.L1280
	b	.L1305
.L1349:
	ldr	r1, [r6, #248]
	mov	r0, r10
	ldr	lr, [r6, #176]
	mvn	r4, #1
	ldr	ip, [r5, #8]
	ldr	r3, [r5, #4]
	ldr	r2, [r6, #20]
	ldr	r1, [r1, #8]
	stm	sp, {ip, lr}
	bl	NAND_Print_DBG
	b	.L1280
	.size	m9_read_page_end, .-m9_read_page_end
	.align	2
	.global	m9_special_init
	.syntax unified
	.arm
	.type	m9_special_init, %function
m9_special_init:
	@ args = 0, pretend = 0, frame = 0
	@ frame_needed = 0, uses_anonymous_args = 0
	movw	r3, #:lower16:g_nsi
	push	{r4, r5, r6, lr}
	movt	r3, #:upper16:g_nsi
	ldr	r3, [r3]
	ldr	r4, [r3, #8]
	cmp	r4, #0
	beq	.L1351
	mov	r5, #0
.L1352:
	mov	r0, r4
	bl	m9_readretry_init
	ldr	r4, [r4]
	orr	r5, r5, r0
	cmp	r4, #0
	bne	.L1352
	cmp	r5, #0
	beq	.L1351
	movw	r1, #:lower16:.LANCHOR0
	movw	r0, #:lower16:.LC206
	movt	r1, #:upper16:.LANCHOR0
	movt	r0, #:upper16:.LC206
	ldrb	r3, [r1, #238]	@ zero_extendqisi2
	ldrb	r2, [r1, #237]	@ zero_extendqisi2
	ldrb	r1, [r1, #236]	@ zero_extendqisi2
	bl	NAND_Print
	mov	r0, r5
	pop	{r4, r5, r6, pc}
.L1351:
	movw	r1, #:lower16:.LANCHOR0
	movw	ip, #:lower16:function_read_page_end
	movt	r1, #:upper16:.LANCHOR0
	movw	lr, #:lower16:m9_read_page_end
	movw	r0, #:lower16:.LC205
	ldrb	r3, [r1, #238]	@ zero_extendqisi2
	ldrb	r2, [r1, #237]	@ zero_extendqisi2
	movt	ip, #:upper16:function_read_page_end
	movt	lr, #:upper16:m9_read_page_end
	ldrb	r1, [r1, #236]	@ zero_extendqisi2
	mov	r5, #0
	movt	r0, #:upper16:.LC205
	str	lr, [ip]
	bl	NAND_Print
	mov	r0, r5
	pop	{r4, r5, r6, pc}
	.size	m9_special_init, .-m9_special_init
	.align	2
	.global	m9_special_exit
	.syntax unified
	.arm
	.type	m9_special_exit, %function
m9_special_exit:
	@ args = 0, pretend = 0, frame = 0
	@ frame_needed = 0, uses_anonymous_args = 0
	movw	r3, #:lower16:g_nsi
	push	{r4, r5, r6, lr}
	movt	r3, #:upper16:g_nsi
	ldr	r3, [r3]
	ldr	r4, [r3, #8]
	cmp	r4, #0
	movne	r6, #0
	bne	.L1364
	b	.L1365
.L1363:
	ldr	r4, [r4]
	cmp	r4, #0
	beq	.L1365
.L1364:
	ldr	r3, [r4, #220]
	cmp	r3, #0
	beq	.L1363
	str	r6, [r4, #196]
	mov	r0, r4
	bl	_setup_nand_toggle_vendor_specific_feature
	subs	r5, r0, #0
	beq	.L1363
	movw	r0, #:lower16:.LC208
	movt	r0, #:upper16:.LC208
	bl	NAND_Print
	mov	r0, r5
	pop	{r4, r5, r6, pc}
.L1365:
	movw	r0, #:lower16:.LC207
	movt	r0, #:upper16:.LC207
	bl	NAND_Print
	mov	r0, #0
	pop	{r4, r5, r6, pc}
	.size	m9_special_exit, .-m9_special_exit
	.align	2
	.global	m9_check_bad_block_first_burn
	.syntax unified
	.arm
	.type	m9_check_bad_block_first_burn, %function
m9_check_bad_block_first_burn:
	@ args = 0, pretend = 0, frame = 0
	@ frame_needed = 0, uses_anonymous_args = 0
	movw	r3, #:lower16:g_nsi
	push	{r4, r5, r6, r7, r8, r9, lr}
	movt	r3, #:upper16:g_nsi
	mov	r7, r0
	sub	sp, sp, #12
	ldr	r1, [r0]
	ldr	r0, [r3]
	bl	nci_get_from_nsi
	ldr	r4, [r0, #248]
	mov	r5, r0
	ldr	r2, [r0, #20]
	ldr	ip, [r7, #4]
	ldr	r3, [r4, #12]
	ldr	lr, [r0, #24]
	cmp	r2, r3
	bcs	.L1376
	cmp	ip, lr
	bcs	.L1376
	mov	r0, r4
	add	r9, r4, #28
	bl	ndfc_disable_randomize
	mov	r0, r5
	mov	r6, #1
	bl	nand_read_chip_status_ready
	mov	r0, r5
	mov	r8, #0
	bl	nand_enable_chip
	mov	r0, r9
	bl	ndfc_clean_cmd_seq
	mov	r3, #128
	mov	r2, #162
	str	r8, [r4, #28]
	str	r8, [r4, #52]
	str	r8, [r4, #112]
	str	r2, [r4, #44]
	str	r6, [r4, #40]
	ldmib	r7, {r1, r2}
	str	r6, [r4, #48]
	str	r6, [r4, #100]
	str	r6, [r4, #108]
	str	r3, [r4, #104]
	ldr	r0, [r5, #36]
	bl	get_row_addr
	add	r3, r4, #116
	mov	r1, #5
	mov	r2, r0
	str	r1, [r4, #132]
	mov	r0, r8
	str	r3, [sp]
	mov	r1, #2
	mov	r3, #3
	bl	fill_cmd_addr
	mov	r3, #16
	mov	r1, r9
	str	r3, [r4, #164]
	str	r6, [r4, #160]
	str	r6, [r4, #168]
	str	r6, [r4, #172]
	ldr	r0, [r5, #248]
	bl	ndfc_execute_cmd
	mov	r0, r5
	bl	nand_read_chip_status_ready
	mov	r4, r0
	mov	r0, r5
	bl	nand_disable_chip
	mov	r0, r4
	add	sp, sp, #12
	@ sp needed
	pop	{r4, r5, r6, r7, r8, r9, pc}
.L1376:
	movw	r0, #:lower16:.LC129
	ldr	r1, [r4, #8]
	movt	r0, #:upper16:.LC129
	stm	sp, {ip, lr}
	bl	NAND_Print
	mvn	r0, #9
	add	sp, sp, #12
	@ sp needed
	pop	{r4, r5, r6, r7, r8, r9, pc}
	.size	m9_check_bad_block_first_burn, .-m9_check_bad_block_first_burn
	.align	2
	.global	add_free_list
	.syntax unified
	.arm
	.type	add_free_list, %function
add_free_list:
	@ args = 0, pretend = 0, frame = 0
	@ frame_needed = 0, uses_anonymous_args = 0
	@ link register save eliminated.
	add	r0, r0, #152
	b	.L1381
.L1383:
	ldrh	r2, [r3, #6]
	ldrh	ip, [r1, #6]
	cmp	ip, r2
	bls	.L1385
	mov	r0, r3
.L1381:
	ldr	r3, [r0, #20]
	cmp	r3, #0
	bne	.L1383
	str	r1, [r0, #20]
	str	r0, [r1, #24]
	mov	r0, #0
	str	r3, [r1, #20]
	bx	lr
.L1385:
	str	r1, [r3, #24]
	str	r3, [r1, #20]
	str	r1, [r0, #20]
	str	r0, [r1, #24]
	mov	r0, #0
	bx	lr
	.size	add_free_list, .-add_free_list
	.align	2
	.global	del_free_list
	.syntax unified
	.arm
	.type	del_free_list, %function
del_free_list:
	@ args = 0, pretend = 0, frame = 0
	@ frame_needed = 0, uses_anonymous_args = 0
	@ link register save eliminated.
	mov	r3, r0
	ldr	r0, [r0, #172]
	cmp	r0, #0
	bxeq	lr
	ldr	r2, [r0, #20]
	str	r2, [r3, #172]
	ldr	r2, [r0, #20]
	str	r2, [r3, #172]
	ldr	r2, [r0, #20]
	cmp	r2, #0
	addne	r3, r3, #152
	strne	r3, [r2, #24]
	bx	lr
	.size	del_free_list, .-del_free_list
	.align	2
	.global	del_free_list_by_block
	.syntax unified
	.arm
	.type	del_free_list_by_block, %function
del_free_list_by_block:
	@ args = 0, pretend = 0, frame = 0
	@ frame_needed = 0, uses_anonymous_args = 0
	@ link register save eliminated.
	ldr	r0, [r0, #172]
	cmp	r0, #0
	bxeq	lr
	cmp	r0, r1
	bne	.L1397
	b	.L1395
.L1399:
	cmp	r1, r0
	beq	.L1395
.L1397:
	ldr	r0, [r0, #20]
	cmp	r0, #0
	bne	.L1399
	bx	lr
.L1395:
	ldr	r3, [r0, #20]
	ldr	r2, [r0, #24]
	str	r3, [r2, #20]
	ldr	r3, [r0, #20]
	cmp	r3, #0
	strne	r2, [r3, #24]
	mov	r3, #0
	str	r3, [r0, #24]
	str	r3, [r0, #20]
	bx	lr
	.size	del_free_list_by_block, .-del_free_list_by_block
	.align	2
	.global	is_block_in_free_list
	.syntax unified
	.arm
	.type	is_block_in_free_list, %function
is_block_in_free_list:
	@ args = 0, pretend = 0, frame = 0
	@ frame_needed = 0, uses_anonymous_args = 0
	@ link register save eliminated.
	ldr	r0, [r0, #172]
	cmp	r0, #0
	bxeq	lr
	cmp	r0, r1
	bne	.L1411
	b	.L1415
.L1412:
	cmp	r1, r0
	beq	.L1415
.L1411:
	ldr	r0, [r0, #20]
	cmp	r0, #0
	bne	.L1412
	bx	lr
.L1415:
	mov	r0, #1
	bx	lr
	.size	is_block_in_free_list, .-is_block_in_free_list
	.align	2
	.global	print_free_list
	.syntax unified
	.arm
	.type	print_free_list, %function
print_free_list:
	@ args = 0, pretend = 0, frame = 0
	@ frame_needed = 0, uses_anonymous_args = 0
	@ link register save eliminated.
	ldr	r3, [r0, #356]
	cmp	r3, #0
	bxeq	lr
	b	print_free_list.part.6
	.size	print_free_list, .-print_free_list
	.align	2
	.global	add_block_invalid_list
	.syntax unified
	.arm
	.type	add_block_invalid_list, %function
add_block_invalid_list:
	@ args = 0, pretend = 0, frame = 0
	@ frame_needed = 0, uses_anonymous_args = 0
	@ link register save eliminated.
	add	r0, r0, #188
	b	.L1419
.L1421:
	ldrh	r2, [r3, #4]
	ldrh	ip, [r1, #4]
	cmp	ip, r2
	bcs	.L1423
	mov	r0, r3
.L1419:
	ldr	r3, [r0, #12]
	cmp	r3, #0
	bne	.L1421
	str	r1, [r0, #12]
	str	r0, [r1, #16]
	mov	r0, #0
	str	r3, [r1, #12]
	bx	lr
.L1423:
	str	r1, [r3, #16]
	str	r3, [r1, #12]
	str	r1, [r0, #12]
	str	r0, [r1, #16]
	mov	r0, #0
	bx	lr
	.size	add_block_invalid_list, .-add_block_invalid_list
	.align	2
	.global	del_block_invalid_list
	.syntax unified
	.arm
	.type	del_block_invalid_list, %function
del_block_invalid_list:
	@ args = 0, pretend = 0, frame = 0
	@ frame_needed = 0, uses_anonymous_args = 0
	@ link register save eliminated.
	mov	r3, r0
	ldr	r0, [r0, #200]
	cmp	r0, #0
	bxeq	lr
	ldr	r2, [r0, #12]
	str	r2, [r3, #200]
	ldr	r2, [r0, #12]
	cmp	r2, #0
	addne	r3, r3, #188
	strne	r3, [r2, #16]
	bx	lr
	.size	del_block_invalid_list, .-del_block_invalid_list
	.align	2
	.global	del_block_invalid_list_by_block
	.syntax unified
	.arm
	.type	del_block_invalid_list_by_block, %function
del_block_invalid_list_by_block:
	@ args = 0, pretend = 0, frame = 0
	@ frame_needed = 0, uses_anonymous_args = 0
	@ link register save eliminated.
	ldr	r0, [r0, #200]
	cmp	r0, #0
	bxeq	lr
	cmp	r0, r1
	bne	.L1435
	b	.L1433
.L1437:
	cmp	r1, r0
	beq	.L1433
.L1435:
	ldr	r0, [r0, #12]
	cmp	r0, #0
	bne	.L1437
	bx	lr
.L1433:
	ldr	r3, [r0, #12]
	ldr	r2, [r0, #16]
	str	r3, [r2, #12]
	ldr	r3, [r0, #12]
	cmp	r3, #0
	strne	r2, [r3, #16]
	mov	r3, #0
	str	r3, [r0, #16]
	str	r3, [r0, #12]
	bx	lr
	.size	del_block_invalid_list_by_block, .-del_block_invalid_list_by_block
	.align	2
	.global	is_block_in_invalid_list
	.syntax unified
	.arm
	.type	is_block_in_invalid_list, %function
is_block_in_invalid_list:
	@ args = 0, pretend = 0, frame = 0
	@ frame_needed = 0, uses_anonymous_args = 0
	@ link register save eliminated.
	ldr	r0, [r0, #200]
	cmp	r0, #0
	bxeq	lr
	cmp	r0, r1
	bne	.L1449
	b	.L1453
.L1450:
	cmp	r1, r0
	beq	.L1453
.L1449:
	ldr	r0, [r0, #12]
	cmp	r0, #0
	bne	.L1450
	bx	lr
.L1453:
	mov	r0, #1
	bx	lr
	.size	is_block_in_invalid_list, .-is_block_in_invalid_list
	.align	2
	.global	print_block_invalid_list
	.syntax unified
	.arm
	.type	print_block_invalid_list, %function
print_block_invalid_list:
	@ args = 0, pretend = 0, frame = 0
	@ frame_needed = 0, uses_anonymous_args = 0
	@ link register save eliminated.
	ldr	r3, [r0, #356]
	cmp	r3, #0
	bxeq	lr
	b	print_block_invalid_list.part.7
	.size	print_block_invalid_list, .-print_block_invalid_list
	.align	2
	.global	add_block_count_list
	.syntax unified
	.arm
	.type	add_block_count_list, %function
add_block_count_list:
	@ args = 0, pretend = 0, frame = 0
	@ frame_needed = 0, uses_anonymous_args = 0
	@ link register save eliminated.
	add	r0, r0, #224
	b	.L1457
.L1459:
	ldr	ip, [r3, #8]
	ldr	r2, [r1, #8]
	cmp	ip, r2
	bge	.L1461
	mov	r0, r3
.L1457:
	ldr	r3, [r0, #28]
	cmp	r3, #0
	bne	.L1459
	str	r1, [r0, #28]
	str	r0, [r1, #32]
	mov	r0, #0
	str	r3, [r1, #28]
	bx	lr
.L1461:
	str	r1, [r3, #32]
	str	r3, [r1, #28]
	str	r1, [r0, #28]
	str	r0, [r1, #32]
	mov	r0, #0
	bx	lr
	.size	add_block_count_list, .-add_block_count_list
	.align	2
	.global	del_block_count_list
	.syntax unified
	.arm
	.type	del_block_count_list, %function
del_block_count_list:
	@ args = 0, pretend = 0, frame = 0
	@ frame_needed = 0, uses_anonymous_args = 0
	@ link register save eliminated.
	ldr	r2, [r0, #252]
	mov	r3, r0
	add	r0, r0, #224
	cmp	r2, #0
	ldrne	r2, [r2, #28]
	strne	r2, [r3, #252]
	bx	lr
	.size	del_block_count_list, .-del_block_count_list
	.align	2
	.global	del_block_count_by_block
	.syntax unified
	.arm
	.type	del_block_count_by_block, %function
del_block_count_by_block:
	@ args = 0, pretend = 0, frame = 0
	@ frame_needed = 0, uses_anonymous_args = 0
	@ link register save eliminated.
	ldr	r0, [r0, #252]
	cmp	r0, #0
	bxeq	lr
	cmp	r0, r1
	bne	.L1471
	b	.L1469
.L1473:
	cmp	r1, r0
	beq	.L1469
.L1471:
	ldr	r0, [r0, #28]
	cmp	r0, #0
	bne	.L1473
	bx	lr
.L1469:
	ldr	r3, [r0, #28]
	ldr	r2, [r0, #32]
	str	r3, [r2, #28]
	ldr	r3, [r0, #28]
	cmp	r3, #0
	strne	r2, [r3, #32]
	mov	r3, #0
	str	r3, [r0, #32]
	str	r3, [r0, #28]
	bx	lr
	.size	del_block_count_by_block, .-del_block_count_by_block
	.align	2
	.global	print_block_count_list
	.syntax unified
	.arm
	.type	print_block_count_list, %function
print_block_count_list:
	@ args = 0, pretend = 0, frame = 0
	@ frame_needed = 0, uses_anonymous_args = 0
	ldr	r3, [r0, #356]
	cmp	r3, #0
	bxeq	lr
	push	{r4, r5, r6, lr}
	mov	r4, r0
	movw	r0, #:lower16:.LC209
	movt	r0, #:upper16:.LC209
	bl	NAND_Print
	ldr	r4, [r4, #252]
	cmp	r4, #0
	popeq	{r4, r5, r6, pc}
	movw	r6, #:lower16:.LC210
	movw	r5, #:lower16:.LC211
	movt	r6, #:upper16:.LC210
	movt	r5, #:upper16:.LC211
.L1485:
	ldrh	r1, [r4]
	mov	r0, r6
	bl	NAND_Print
	ldr	r1, [r4, #8]
	mov	r0, r5
	bl	NAND_Print
	ldr	r4, [r4, #28]
	cmp	r4, #0
	bne	.L1485
	pop	{r4, r5, r6, pc}
	.size	print_block_count_list, .-print_block_count_list
	.align	2
	.global	put_phy_block_to_free_list
	.syntax unified
	.arm
	.type	put_phy_block_to_free_list, %function
put_phy_block_to_free_list:
	@ args = 0, pretend = 0, frame = 0
	@ frame_needed = 0, uses_anonymous_args = 0
	mov	r3, #0
	str	lr, [sp, #-4]!
	add	r2, r0, #152
	mov	lr, r0
	str	r3, [r1, #20]
	str	r3, [r1, #24]
	b	.L1493
.L1495:
	ldrh	r0, [r3, #6]
	ldrh	ip, [r1, #6]
	cmp	ip, r0
	bls	.L1498
	mov	r2, r3
.L1493:
	ldr	r3, [r2, #20]
	cmp	r3, #0
	bne	.L1495
	str	r1, [r2, #20]
	str	r3, [r1, #20]
	str	r2, [r1, #24]
.L1494:
	ldrh	r3, [lr, #22]
	mov	r0, #0
	add	r3, r3, #1
	strh	r3, [lr, #22]	@ movhi
	ldr	pc, [sp], #4
.L1498:
	str	r1, [r3, #24]
	str	r3, [r1, #20]
	str	r1, [r2, #20]
	str	r2, [r1, #24]
	b	.L1494
	.size	put_phy_block_to_free_list, .-put_phy_block_to_free_list
	.align	2
	.global	out_phy_block_from_free_list
	.syntax unified
	.arm
	.type	out_phy_block_from_free_list, %function
out_phy_block_from_free_list:
	@ args = 0, pretend = 0, frame = 0
	@ frame_needed = 0, uses_anonymous_args = 0
	@ link register save eliminated.
	ldr	r3, [r0, #172]
	cmp	r3, #0
	beq	.L1508
	ldr	r2, [r3, #20]
	str	r2, [r0, #172]
	ldr	r2, [r3, #20]
	str	r2, [r0, #172]
	ldr	r2, [r3, #20]
	cmp	r2, #0
	addne	r1, r0, #152
	strne	r1, [r2, #24]
	mov	r1, #0
	ldrh	r2, [r0, #22]
	str	r1, [r3, #20]
	str	r1, [r3, #24]
	cmp	r2, r1
	subne	r2, r2, #1
	strhne	r2, [r0, #22]	@ movhi
.L1508:
	mov	r0, r3
	bx	lr
	.size	out_phy_block_from_free_list, .-out_phy_block_from_free_list
	.align	2
	.global	get_max_erase_time_from_free_list
	.syntax unified
	.arm
	.type	get_max_erase_time_from_free_list, %function
get_max_erase_time_from_free_list:
	@ args = 0, pretend = 0, frame = 0
	@ frame_needed = 0, uses_anonymous_args = 0
	ldr	r3, [r0, #172]
	cmp	r3, #0
	beq	.L1513
	mov	r0, #0
	str	lr, [sp, #-4]!
	mov	ip, r0
.L1512:
	ldrh	r2, [r3, #6]
	cmp	r2, r0
	movcs	lr, #1
	movcc	lr, #0
	cmp	r2, r1
	movcs	lr, #0
	cmp	lr, #0
	movne	ip, r3
	ldr	r3, [r3, #20]
	movne	r0, r2
	cmp	r3, #0
	bne	.L1512
	cmp	ip, #0
	beq	.L1515
	ldrh	r0, [ip, #6]
	ldr	pc, [sp], #4
.L1515:
	movw	r0, #65535
	ldr	pc, [sp], #4
.L1513:
	movw	r0, #65535
	bx	lr
	.size	get_max_erase_time_from_free_list, .-get_max_erase_time_from_free_list
	.align	2
	.global	get_block_max_erase_time_from_free_list
	.syntax unified
	.arm
	.type	get_block_max_erase_time_from_free_list, %function
get_block_max_erase_time_from_free_list:
	@ args = 0, pretend = 0, frame = 0
	@ frame_needed = 0, uses_anonymous_args = 0
	ldr	r3, [r0, #172]
	cmp	r3, #0
	beq	.L1522
	mov	ip, #0
	str	lr, [sp, #-4]!
	mov	r0, ip
.L1521:
	ldrh	r2, [r3, #6]
	cmp	r2, ip
	movcs	lr, #1
	movcc	lr, #0
	cmp	r2, r1
	movcs	lr, #0
	cmp	lr, #0
	movne	r0, r3
	ldr	r3, [r3, #20]
	movne	ip, r2
	cmp	r3, #0
	bne	.L1521
	ldr	pc, [sp], #4
.L1522:
	mov	r0, r3
	bx	lr
	.size	get_block_max_erase_time_from_free_list, .-get_block_max_erase_time_from_free_list
	.align	2
	.global	get_block_max_erase_time_from_invalid_list
	.syntax unified
	.arm
	.type	get_block_max_erase_time_from_invalid_list, %function
get_block_max_erase_time_from_invalid_list:
	@ args = 0, pretend = 0, frame = 0
	@ frame_needed = 0, uses_anonymous_args = 0
	ldr	r3, [r0, #200]
	cmp	r3, #0
	beq	.L1531
	mov	ip, #0
	str	lr, [sp, #-4]!
	mov	r0, ip
.L1530:
	ldrh	r2, [r3, #6]
	cmp	r2, ip
	movcs	lr, #1
	movcc	lr, #0
	cmp	r2, r1
	movcs	lr, #0
	cmp	lr, #0
	movne	r0, r3
	ldr	r3, [r3, #12]
	movne	ip, r2
	cmp	r3, #0
	bne	.L1530
	ldr	pc, [sp], #4
.L1531:
	mov	r0, r3
	bx	lr
	.size	get_block_max_erase_time_from_invalid_list, .-get_block_max_erase_time_from_invalid_list
	.align	2
	.global	get_block_min_erase_time_from_invalid_list
	.syntax unified
	.arm
	.type	get_block_min_erase_time_from_invalid_list, %function
get_block_min_erase_time_from_invalid_list:
	@ args = 0, pretend = 0, frame = 0
	@ frame_needed = 0, uses_anonymous_args = 0
	ldr	r3, [r0, #200]
	ldr	r0, [r0, #4]
	push	{r4, lr}
	cmp	r3, #0
	ldrh	r4, [r0, #16]
	beq	.L1540
	mov	r0, #0
.L1539:
	ldrh	ip, [r3, #6]
	cmp	ip, r1
	bcs	.L1538
	ldr	lr, [r3, #8]
	cmp	ip, r4
	cmpls	lr, r2
	movcc	lr, #1
	movcs	lr, #0
	cmp	lr, #0
	movne	r4, ip
	movne	r0, r3
.L1538:
	ldr	r3, [r3, #12]
	cmp	r3, #0
	bne	.L1539
	pop	{r4, pc}
.L1540:
	mov	r0, r3
	pop	{r4, pc}
	.size	get_block_min_erase_time_from_invalid_list, .-get_block_min_erase_time_from_invalid_list
	.align	2
	.global	get_block_max_count_from_invalid_list
	.syntax unified
	.arm
	.type	get_block_max_count_from_invalid_list, %function
get_block_max_count_from_invalid_list:
	@ args = 0, pretend = 0, frame = 0
	@ frame_needed = 0, uses_anonymous_args = 0
	@ link register save eliminated.
	ldr	r0, [r0, #200]
	cmp	r0, #0
	ldrne	r1, [r0, #8]
	movne	r3, r0
	bne	.L1549
	b	.L1551
.L1548:
	ldr	r2, [r3, #8]
	cmp	r1, r2
	movls	r1, r2
	movls	r0, r3
.L1549:
	ldr	r3, [r3, #12]
	cmp	r3, #0
	bne	.L1548
	bx	lr
.L1551:
	bx	lr
	.size	get_block_max_count_from_invalid_list, .-get_block_max_count_from_invalid_list
	.align	2
	.global	get_block_min_count_from_invalid_list
	.syntax unified
	.arm
	.type	get_block_min_count_from_invalid_list, %function
get_block_min_count_from_invalid_list:
	@ args = 0, pretend = 0, frame = 0
	@ frame_needed = 0, uses_anonymous_args = 0
	@ link register save eliminated.
	ldr	r0, [r0, #200]
	cmp	r0, #0
	ldrne	r1, [r0, #8]
	movne	r3, r0
	bne	.L1557
	b	.L1559
.L1556:
	ldr	r2, [r3, #8]
	cmp	r1, r2
	movcs	r1, r2
	movcs	r0, r3
.L1557:
	ldr	r3, [r3, #12]
	cmp	r3, #0
	bne	.L1556
	bx	lr
.L1559:
	bx	lr
	.size	get_block_min_count_from_invalid_list, .-get_block_min_count_from_invalid_list
	.align	2
	.global	out_phy_block_from_free_list_by_block
	.syntax unified
	.arm
	.type	out_phy_block_from_free_list_by_block, %function
out_phy_block_from_free_list_by_block:
	@ args = 0, pretend = 0, frame = 0
	@ frame_needed = 0, uses_anonymous_args = 0
	@ link register save eliminated.
	ldr	r3, [r0, #172]
	cmp	r3, #0
	bne	.L1567
	b	.L1561
.L1564:
	ldr	r3, [r3, #20]
	cmp	r3, #0
	beq	.L1561
.L1567:
	cmp	r1, r3
	bne	.L1564
	ldr	r1, [r3, #24]
	ldr	r2, [r3, #20]
	str	r2, [r1, #20]
	ldr	r2, [r3, #20]
	cmp	r2, #0
	strne	r1, [r2, #24]
	mov	r1, #0
	ldrh	r2, [r0, #22]
	str	r1, [r3, #20]
	str	r1, [r3, #24]
	cmp	r2, r1
	subne	r2, r2, #1
	strhne	r2, [r0, #22]	@ movhi
.L1561:
	mov	r0, r3
	bx	lr
	.size	out_phy_block_from_free_list_by_block, .-out_phy_block_from_free_list_by_block
	.align	2
	.global	out_phy_block_from_free_list_by_erase_time
	.syntax unified
	.arm
	.type	out_phy_block_from_free_list_by_erase_time, %function
out_phy_block_from_free_list_by_erase_time:
	@ args = 0, pretend = 0, frame = 0
	@ frame_needed = 0, uses_anonymous_args = 0
	ldr	r3, [r0, #172]
	cmp	r3, #0
	beq	.L1588
	mov	ip, #0
	push	{r4, lr}
	mov	lr, ip
.L1579:
	ldrh	r2, [r3, #6]
	cmp	r2, ip
	movcs	r4, #1
	movcc	r4, #0
	cmp	r2, r1
	movcs	r4, #0
	cmp	r4, #0
	movne	lr, r3
	ldr	r3, [r3, #20]
	movne	ip, r2
	cmp	r3, #0
	bne	.L1579
	cmp	lr, #0
	beq	.L1577
	mov	r1, lr
	pop	{r4, lr}
	b	out_phy_block_from_free_list_by_block
.L1577:
	mov	r0, #0
	pop	{r4, pc}
.L1588:
	mov	r0, #0
	bx	lr
	.size	out_phy_block_from_free_list_by_erase_time, .-out_phy_block_from_free_list_by_erase_time
	.align	2
	.global	put_phy_block_to_invalid_page_list
	.syntax unified
	.arm
	.type	put_phy_block_to_invalid_page_list, %function
put_phy_block_to_invalid_page_list:
	@ args = 0, pretend = 0, frame = 0
	@ frame_needed = 0, uses_anonymous_args = 0
	@ link register save eliminated.
	mov	r3, #0
	add	r0, r0, #188
	str	r3, [r1, #12]
	str	r3, [r1, #16]
	b	.L1590
.L1592:
	ldrh	r2, [r3, #4]
	ldrh	ip, [r1, #4]
	cmp	ip, r2
	bcs	.L1594
	mov	r0, r3
.L1590:
	ldr	r3, [r0, #12]
	cmp	r3, #0
	bne	.L1592
	str	r1, [r0, #12]
	str	r0, [r1, #16]
	mov	r0, #0
	str	r3, [r1, #12]
	bx	lr
.L1594:
	str	r1, [r3, #16]
	str	r3, [r1, #12]
	str	r1, [r0, #12]
	str	r0, [r1, #16]
	mov	r0, #0
	bx	lr
	.size	put_phy_block_to_invalid_page_list, .-put_phy_block_to_invalid_page_list
	.align	2
	.global	out_phy_block_from_invalid_page_list
	.syntax unified
	.arm
	.type	out_phy_block_from_invalid_page_list, %function
out_phy_block_from_invalid_page_list:
	@ args = 0, pretend = 0, frame = 0
	@ frame_needed = 0, uses_anonymous_args = 0
	@ link register save eliminated.
	ldr	r3, [r0, #200]
	cmp	r3, #0
	beq	.L1600
	ldr	r2, [r3, #12]
	str	r2, [r0, #200]
	ldr	r2, [r3, #12]
	cmp	r2, #0
	addne	r0, r0, #188
	strne	r0, [r2, #16]
	mov	r2, #0
	str	r2, [r3, #12]
	str	r2, [r3, #16]
.L1600:
	mov	r0, r3
	bx	lr
	.size	out_phy_block_from_invalid_page_list, .-out_phy_block_from_invalid_page_list
	.align	2
	.global	out_phy_block_from_invalid_page_list_by_block
	.syntax unified
	.arm
	.type	out_phy_block_from_invalid_page_list_by_block, %function
out_phy_block_from_invalid_page_list_by_block:
	@ args = 0, pretend = 0, frame = 0
	@ frame_needed = 0, uses_anonymous_args = 0
	@ link register save eliminated.
	ldr	r0, [r0, #200]
	cmp	r0, #0
	bne	.L1611
	bx	lr
.L1609:
	ldr	r0, [r0, #12]
	cmp	r0, #0
	beq	.L1620
.L1611:
	cmp	r1, r0
	bne	.L1609
	ldr	r3, [r0, #12]
	ldr	r2, [r0, #16]
	str	r3, [r2, #12]
	ldr	r3, [r0, #12]
	cmp	r3, #0
	strne	r2, [r3, #16]
	mov	r3, #0
	str	r3, [r0, #12]
	str	r3, [r0, #16]
	bx	lr
.L1620:
	bx	lr
	.size	out_phy_block_from_invalid_page_list_by_block, .-out_phy_block_from_invalid_page_list_by_block
	.align	2
	.global	phy_block_from_invalid_page_incr
	.syntax unified
	.arm
	.type	phy_block_from_invalid_page_incr, %function
phy_block_from_invalid_page_incr:
	@ args = 0, pretend = 0, frame = 0
	@ frame_needed = 0, uses_anonymous_args = 0
	ldr	r3, [r1, #12]
	push	{r4, r5, r6, lr}
	mov	r4, r1
	mov	r5, r0
	cmp	r3, #0
	beq	.L1637
.L1622:
	ldrh	r3, [r4, #4]
	ldr	r2, [r5, #4]
	add	r3, r3, #1
	ldrh	r2, [r2, #20]
	uxth	r3, r3
	strh	r3, [r4, #4]	@ movhi
	cmp	r2, r3
	bcc	.L1638
.L1625:
	ldr	r3, [r4, #16]
	add	r5, r5, #188
	cmp	r3, r5
	beq	.L1624
	ldrh	r1, [r4, #4]
	b	.L1627
.L1629:
	ldr	r2, [r3, #16]
	str	r2, [r4, #16]
	ldr	r2, [r3, #16]
	str	r4, [r2, #12]
	ldr	r2, [r4, #12]
	str	r2, [r3, #12]
	ldr	r2, [r4, #12]
	cmp	r2, #0
	strne	r3, [r2, #16]
	str	r3, [r4, #12]
	str	r4, [r3, #16]
	ldr	r3, [r4, #16]
	ldr	r2, [r3, #16]
	cmp	r2, #0
	beq	.L1624
.L1627:
	ldrh	r2, [r3, #4]
	cmp	r2, r1
	bcc	.L1629
.L1624:
	mov	r0, #0
	pop	{r4, r5, r6, pc}
.L1638:
	movw	r0, #:lower16:.LC213
	movt	r0, #:upper16:.LC213
	bl	NAND_Print
	b	.L1625
.L1637:
	ldr	r3, [r1, #16]
	cmp	r3, #0
	bne	.L1622
	ldr	r3, [r0, #4]
	ldrh	r2, [r1, #4]
	ldrh	r3, [r3, #20]
	add	r2, r2, #1
	uxth	r2, r2
	cmp	r3, r2
	strh	r2, [r1, #4]	@ movhi
	bcs	.L1624
	movw	r0, #:lower16:.LC212
	ldrh	r1, [r1]
	movt	r0, #:upper16:.LC212
	bl	NAND_Print
	b	.L1624
	.size	phy_block_from_invalid_page_incr, .-phy_block_from_invalid_page_incr
	.align	2
	.global	adjust_invaild_list
	.syntax unified
	.arm
	.type	adjust_invaild_list, %function
adjust_invaild_list:
	@ args = 0, pretend = 0, frame = 0
	@ frame_needed = 0, uses_anonymous_args = 0
	ldr	r1, [r0, #200]
	cmp	r1, #0
	beq	.L1654
	push	{r4, r5, r6, r7, lr}
	ldr	r5, [r0, #4]
	ldrh	r2, [r1, #4]
	ldrh	r3, [r5, #20]
	cmp	r2, r3
	bne	.L1651
	add	r6, r0, #152
	add	r7, r0, #188
	mov	r4, #0
.L1642:
	ldr	r3, [r1, #12]
	mov	r2, r6
	str	r3, [r0, #200]
	ldr	r3, [r1, #12]
	cmp	r3, #0
	strne	r7, [r3, #16]
	str	r4, [r1, #12]
	str	r4, [r1, #16]
	str	r4, [r1, #20]
	str	r4, [r1, #24]
	b	.L1644
.L1646:
	ldrh	ip, [r3, #6]
	ldrh	lr, [r1, #6]
	cmp	lr, ip
	bls	.L1655
	mov	r2, r3
.L1644:
	ldr	r3, [r2, #20]
	cmp	r3, #0
	bne	.L1646
	str	r1, [r2, #20]
	str	r3, [r1, #20]
	str	r2, [r1, #24]
.L1645:
	ldr	r1, [r0, #200]
	ldrh	r3, [r0, #22]
	cmp	r1, #0
	add	r3, r3, #1
	strh	r3, [r0, #22]	@ movhi
	beq	.L1651
	ldrh	r2, [r1, #4]
	ldrh	r3, [r5, #20]
	cmp	r2, r3
	beq	.L1642
.L1651:
	mov	r0, #0
	pop	{r4, r5, r6, r7, pc}
.L1655:
	str	r1, [r3, #24]
	str	r3, [r1, #20]
	str	r1, [r2, #20]
	str	r2, [r1, #24]
	b	.L1645
.L1654:
	mov	r0, #0
	bx	lr
	.size	adjust_invaild_list, .-adjust_invaild_list
	.align	2
	.global	zone_param_exit
	.syntax unified
	.arm
	.type	zone_param_exit, %function
zone_param_exit:
	@ args = 0, pretend = 0, frame = 0
	@ frame_needed = 0, uses_anonymous_args = 0
	push	{r4, r5, r6, lr}
	mov	r6, r0
	add	r4, r0, #48
	add	r5, r0, #148
.L1658:
	mov	r1, #0
	ldr	r0, [r4, #4]!
	cmp	r0, r1
	beq	.L1657
	bl	NAND_Free
.L1657:
	cmp	r4, r5
	bne	.L1658
	ldr	r0, [r6, #260]
	mov	r1, #0
	bl	NAND_Free
	ldr	r0, [r6, #296]
	mov	r1, #0
	bl	NAND_Free
	ldr	r0, [r6, #328]
	mov	r1, #0
	bl	NAND_Free
	ldr	r0, [r6, #284]
	mov	r1, #0
	bl	NAND_Free
	ldr	r0, [r6, #288]
	mov	r1, #0
	bl	NAND_Free
	mov	r0, #0
	pop	{r4, r5, r6, pc}
	.size	zone_param_exit, .-zone_param_exit
	.global	__aeabi_uidiv
	.align	2
	.global	is_no_use_device
	.syntax unified
	.arm
	.type	is_no_use_device, %function
is_no_use_device:
	@ args = 0, pretend = 0, frame = 32
	@ frame_needed = 0, uses_anonymous_args = 0
	ldr	r3, [r0, #24]
	push	{r4, r5, r6, r7, r8, r9, r10, lr}
	mov	r4, r0
	sub	sp, sp, #32
	mov	r8, r1
	cmp	r3, #0
	ldr	r9, [r0, #40]
	beq	.L1665
	ldr	r10, [r0, #4]
	ldr	r0, [r0, #32]
	ldrb	r1, [r10, #8]	@ zero_extendqisi2
	add	r0, r3, r0
	bl	__aeabi_uidiv
	ldrh	r1, [r10, #20]
	bl	__aeabi_uidiv
	subs	r7, r0, #0
	mov	r3, #0
	strh	r3, [r4, #18]	@ movhi
	beq	.L1669
.L1666:
	add	r9, r9, #36
	mov	r5, #0
	mov	r6, #255
	b	.L1674
.L1677:
	cmp	r3, r7
	bcs	.L1669
.L1674:
	ldrh	ip, [r9, #-36]
	sub	r3, r9, #36
	ldrh	lr, [r10, #28]
	add	r1, sp, #16
	ldr	r2, [r4, #284]
	mov	r0, r4
	str	r3, [r4, #44]
	strh	lr, [sp, #20]	@ movhi
	strh	ip, [sp, #18]	@ movhi
	strh	r5, [sp, #16]	@ movhi
	str	sp, [sp, #28]
	str	r2, [sp, #24]
	ldr	r3, [r4, #1992]
	blx	r3
	cmp	r0, #1
	mov	r10, r0
	beq	.L1680
	strh	r6, [r9, #-34]	@ movhi
	add	r9, r9, #36
	ldrh	r3, [r4, #18]
	ldr	r10, [r4, #4]
	add	r3, r3, #1
	uxth	r3, r3
	ldrh	r2, [r10, #24]
	strh	r3, [r4, #18]	@ movhi
	ldrh	r1, [r9, #-72]
	sub	r2, r2, #1
	cmp	r1, r2
	bne	.L1677
.L1669:
	mov	r0, #1
.L1676:
	add	sp, sp, #32
	@ sp needed
	pop	{r4, r5, r6, r7, r8, r9, r10, pc}
.L1665:
	strh	r3, [r0, #18]	@ movhi
	mvn	r7, #0
	ldr	r10, [r0, #4]
	b	.L1666
.L1680:
	ldr	r3, [r4, #1980]
	add	r1, sp, #16
	mov	r0, r4
	blx	r3
	ldrb	r3, [sp, #1]	@ zero_extendqisi2
	cmp	r3, #170
	bne	.L1669
	ldrb	r3, [sp, #2]	@ zero_extendqisi2
	cmp	r3, #238
	bne	.L1669
	cmp	r0, #10
	cmpne	r0, #0
	bne	.L1669
	ldrb	r0, [sp, #3]	@ zero_extendqisi2
	ldrb	r1, [sp, #4]	@ zero_extendqisi2
	ldrb	r2, [sp, #5]	@ zero_extendqisi2
	ldrb	r3, [sp, #6]	@ zero_extendqisi2
	orr	r1, r1, r0, lsl #8
	orr	r2, r2, r1, lsl #8
	orr	r3, r3, r2, lsl #8
	cmp	r8, r3
	streq	r9, [r4, #40]
	moveq	r0, #0
	beq	.L1676
	movw	r0, #:lower16:.LC214
	movt	r0, #:upper16:.LC214
	bl	NAND_Print
	mov	r0, r10
	b	.L1676
	.size	is_no_use_device, .-is_no_use_device
	.align	2
	.global	get_vaild_blocks
	.syntax unified
	.arm
	.type	get_vaild_blocks, %function
get_vaild_blocks:
	@ args = 0, pretend = 0, frame = 16
	@ frame_needed = 0, uses_anonymous_args = 0
	push	{r4, r5, r6, r7, r8, lr}
	sub	r8, r2, r1
	ldr	r2, [r0, #4]
	cmp	r1, r8
	sub	sp, sp, #16
	add	r3, r1, r1, lsl #3
	ldr	r4, [r2, #32]
	bcs	.L1686
	lsl	r3, r3, #2
	mov	r6, r0
	mov	r5, r1
	add	r3, r3, #36
	mov	r7, r8
	add	r4, r4, r3
	b	.L1685
.L1683:
	ldr	r3, [r6, #4]
	add	r4, r4, #36
	ldrh	r2, [r4, #-72]
	ldrh	r3, [r3, #24]
	sub	r3, r3, #1
	cmp	r2, r3
	beq	.L1691
	cmp	r8, r5
	beq	.L1691
.L1685:
	ldrh	r2, [r4, #-36]
	mov	r1, sp
	ldr	r3, [r6, #1992]
	mov	r0, r6
	add	r5, r5, #1
	strh	r2, [sp, #2]	@ movhi
	blx	r3
	cmp	r0, #159
	bne	.L1683
	subs	r7, r7, #1
	bne	.L1683
.L1691:
	mov	r0, r7
.L1689:
	add	sp, sp, #16
	@ sp needed
	pop	{r4, r5, r6, r7, r8, pc}
.L1686:
	mov	r0, r8
	b	.L1689
	.size	get_vaild_blocks, .-get_vaild_blocks
	.align	2
	.global	init_zone_after_first_scan
	.syntax unified
	.arm
	.type	init_zone_after_first_scan, %function
init_zone_after_first_scan:
	@ args = 0, pretend = 0, frame = 0
	@ frame_needed = 0, uses_anonymous_args = 0
	push	{r4, r5, r6, r7, r8, lr}
	mov	r5, r1
	ldr	r6, [r0, #4]
	mov	r4, r0
	ldr	r0, [r0, #24]
	ldrb	r1, [r6, #8]	@ zero_extendqisi2
	bl	__aeabi_uidiv
	ldrh	r1, [r6, #20]
	bl	__aeabi_uidiv
	mov	r6, r0
	mov	r2, r0
	movw	r0, #:lower16:.LC215
	mov	r1, r5
	movt	r0, #:upper16:.LC215
	bl	NAND_Print_DBG
	cmp	r6, r5
	bcs	.L1700
	ldr	r0, [r4, #4]
	sub	r2, r5, r6
	ldr	r1, [r4, #1972]
	ldrb	ip, [r0, #8]	@ zero_extendqisi2
	ldrh	r3, [r0, #20]
	ldrh	r0, [r1, #12]
	mul	r3, r3, ip
	sub	r0, r0, #1
	cmp	r2, r0
	mul	r3, r2, r3
	str	r3, [r4, #32]
	bcc	.L1701
	movw	r6, #52429
	ldrh	r3, [r1, #14]
	movt	r6, 52428
	add	r0, r4, #380
	umull	r6, r7, r2, r6
	ubfx	r5, r7, #2, #16
	cmp	r5, r3
	strh	r5, [r0]	@ movhi
	strhcc	r3, [r0]	@ movhi
	movcc	r5, r3
	ldrh	r0, [r1, #18]
	ldrh	r1, [r1, #20]
	mul	r0, r2, r0
	bl	__aeabi_uidiv
	uxth	r3, r0
	add	r2, r5, #1
	add	r1, r4, #384
	cmp	r2, r3
	mov	ip, #1
	movwlt	r3, #382
	movwge	r3, #382
	addge	r5, r5, #2
	strhlt	r0, [r4, r3]	@ movhi
	strhge	r5, [r4, r3]	@ movhi
	movw	r2, #386
	mov	r3, #0
	strh	ip, [r1]	@ movhi
	mov	r0, r3
	strh	r3, [r4, r2]	@ movhi
	pop	{r4, r5, r6, r7, r8, pc}
.L1700:
	movw	r0, #:lower16:.LC216
	movt	r0, #:upper16:.LC216
	bl	NAND_Print
	mov	r0, #1
	pop	{r4, r5, r6, r7, r8, pc}
.L1701:
	movw	r0, #:lower16:.LC217
	mov	r2, r6
	mov	r1, r5
	movt	r0, #:upper16:.LC217
	bl	NAND_Print
	mov	r0, #1
	pop	{r4, r5, r6, r7, r8, pc}
	.size	init_zone_after_first_scan, .-init_zone_after_first_scan
	.align	2
	.global	do_write_error_in_build_list
	.syntax unified
	.arm
	.type	do_write_error_in_build_list, %function
do_write_error_in_build_list:
	@ args = 0, pretend = 0, frame = 16
	@ frame_needed = 0, uses_anonymous_args = 0
	push	{r4, r5, r6, r7, r8, r9, r10, lr}
	mov	r7, r2
	ldr	r2, [r0, #4]
	sub	sp, sp, #24
	mov	r6, #0
	mov	r9, r1
	ldrh	ip, [r7]
	add	r1, sp, #8
	ldrh	r2, [r2, #28]
	mov	r8, r3
	strh	r6, [sp, #8]	@ movhi
	mov	r5, r0
	ldr	r3, [r0, #1976]
	strh	ip, [sp, #10]	@ movhi
	str	r6, [sp, #16]
	strh	r2, [sp, #12]	@ movhi
	str	r6, [sp, #20]
	blx	r3
	ldrh	r3, [r7, #6]
	cmp	r0, #0
	strh	r6, [r7, #4]	@ movhi
	add	r3, r3, #1
	strh	r3, [r7, #6]	@ movhi
	bne	.L1703
	cmp	r8, r6
	movwne	r10, #:lower16:.LC219
	movne	r4, r0
	movtne	r10, #:upper16:.LC219
	bne	.L1708
	b	.L1709
.L1707:
	cmp	r4, r8
	bcs	.L1709
.L1708:
	uxth	r1, r4
	ldr	r3, [r5, #284]
	ldr	r6, [r5, #1988]
	mov	r2, r7
	str	r1, [sp]
	mov	r0, r5
	mov	r1, r9
	add	r4, r4, #1
	blx	r6
	cmp	r0, #0
	beq	.L1707
	mov	r0, r10
	bl	NAND_Print
	cmp	r4, r8
	bcc	.L1708
.L1709:
	ldr	r3, [r5, #4]
	mov	r4, #0
	ldrh	r2, [r9]
	add	r1, sp, #8
	strh	r4, [sp, #8]	@ movhi
	mov	r0, r5
	ldrh	r3, [r3, #28]
	strh	r2, [sp, #10]	@ movhi
	str	r4, [sp, #16]
	strh	r3, [sp, #12]	@ movhi
	str	r4, [sp, #20]
	ldr	r3, [r5, #1996]
	blx	r3
	cmp	r8, r4
	movne	r0, r4
	moveq	r0, r8
	addeq	r3, r5, #320
	streq	r7, [r5, #292]
	strheq	r8, [r3]	@ movhi
.L1706:
	add	sp, sp, #24
	@ sp needed
	pop	{r4, r5, r6, r7, r8, r9, r10, pc}
.L1703:
	movw	r0, #:lower16:.LC218
	movt	r0, #:upper16:.LC218
	bl	NAND_Print
	add	r1, sp, #8
	ldr	r3, [r5, #1996]
	mov	r0, r5
	blx	r3
	mov	r0, #1
	add	sp, sp, #24
	@ sp needed
	pop	{r4, r5, r6, r7, r8, r9, r10, pc}
	.size	do_write_error_in_build_list, .-do_write_error_in_build_list
	.align	2
	.global	nftl_check_pattern
	.syntax unified
	.arm
	.type	nftl_check_pattern, %function
nftl_check_pattern:
	@ args = 0, pretend = 0, frame = 0
	@ frame_needed = 0, uses_anonymous_args = 0
	@ link register save eliminated.
	cmp	r2, #0
	ble	.L1719
	ldrb	r3, [r0]	@ zero_extendqisi2
	cmp	r3, r1
	bne	.L1721
	add	r2, r0, r2
	add	r0, r0, #1
	b	.L1717
.L1718:
	ldrb	r3, [r0], #1	@ zero_extendqisi2
	cmp	r3, r1
	bne	.L1721
.L1717:
	cmp	r0, r2
	bne	.L1718
.L1719:
	mov	r0, #0
	bx	lr
.L1721:
	mov	r0, #1
	bx	lr
	.size	nftl_check_pattern, .-nftl_check_pattern
	.align	2
	.global	is_last_phy_block
	.syntax unified
	.arm
	.type	is_last_phy_block, %function
is_last_phy_block:
	@ args = 0, pretend = 0, frame = 0
	@ frame_needed = 0, uses_anonymous_args = 0
	@ link register save eliminated.
	ldr	r3, [r1, #4]
	ldrh	r0, [r0]
	ldrh	r3, [r3, #24]
	sub	r3, r3, #1
	sub	r0, r3, r0
	clz	r0, r0
	lsr	r0, r0, #5
	bx	lr
	.size	is_last_phy_block, .-is_last_phy_block
	.align	2
	.global	is_phy_block_valid
	.syntax unified
	.arm
	.type	is_phy_block_valid, %function
is_phy_block_valid:
	@ args = 0, pretend = 0, frame = 0
	@ frame_needed = 0, uses_anonymous_args = 0
	@ link register save eliminated.
	ldr	r3, [r1, #4]
	ldrh	r0, [r0]
	ldrh	r3, [r3, #24]
	cmp	r0, r3
	movcs	r0, #0
	movcc	r0, #1
	bx	lr
	.size	is_phy_block_valid, .-is_phy_block_valid
	.align	2
	.global	get_phy_block_addr
	.syntax unified
	.arm
	.type	get_phy_block_addr, %function
get_phy_block_addr:
	@ args = 0, pretend = 0, frame = 0
	@ frame_needed = 0, uses_anonymous_args = 0
	@ link register save eliminated.
	ldr	r3, [r0, #4]
	add	r1, r1, r1, lsl #3
	ldr	r0, [r3, #32]
	add	r0, r0, r1, lsl #2
	bx	lr
	.size	get_phy_block_addr, .-get_phy_block_addr
	.align	2
	.global	check_cross_talk
	.syntax unified
	.arm
	.type	check_cross_talk, %function
check_cross_talk:
	@ args = 0, pretend = 0, frame = 32
	@ frame_needed = 0, uses_anonymous_args = 0
	ldr	r3, [r0, #4]
	ldrh	r2, [r3, #20]
	cmp	r2, #0
	beq	.L1733
	push	{r4, r5, r6, r7, lr}
	mov	r4, #0
	sub	sp, sp, #36
	mov	r6, r1
	mov	r5, r0
	mov	r7, r4
.L1729:
	ldrh	r2, [r3, #28]
	add	r1, sp, #16
	ldrh	r3, [r6]
	mov	r0, r5
	strh	r4, [sp, #16]	@ movhi
	add	r4, r4, #1
	strh	r2, [sp, #20]	@ movhi
	strh	r3, [sp, #18]	@ movhi
	str	r7, [sp, #24]
	str	sp, [sp, #28]
	ldr	r3, [r5, #1980]
	blx	r3
	cmp	r0, #0
	bne	.L1728
	ldrb	r3, [sp, #14]	@ zero_extendqisi2
	cmp	r3, #99
	bhi	.L1728
	ldr	r2, [r5, #1968]
	ldr	r1, [r2, #172]
	cmp	r1, r3
	bls	.L1734
.L1728:
	ldr	r3, [r5, #4]
	ldrh	r2, [r3, #20]
	cmp	r2, r4
	bhi	.L1729
	mov	r0, #0
	add	sp, sp, #36
	@ sp needed
	pop	{r4, r5, r6, r7, pc}
.L1734:
	mov	r0, #0
	str	r3, [r2, #172]
	add	sp, sp, #36
	@ sp needed
	pop	{r4, r5, r6, r7, pc}
.L1733:
	mov	r0, #0
	bx	lr
	.size	check_cross_talk, .-check_cross_talk
	.align	2
	.global	init_smart_info
	.syntax unified
	.arm
	.type	init_smart_info, %function
init_smart_info:
	@ args = 0, pretend = 0, frame = 32
	@ frame_needed = 0, uses_anonymous_args = 0
	push	{r4, r5, r6, lr}
	mov	r2, #328
	mov	r4, r0
	mov	r6, r1
	sub	sp, sp, #32
	mov	r1, #0
	ldr	r0, [r0, #1968]
	movw	r5, #43521
	bl	NAND_Memset
	ldr	r3, [r4, #1968]
	cmp	r6, #0
	movt	r5, 43690
	ldr	r2, [r3, #144]
	str	r5, [r3, #64]
	add	r2, r2, #1
	str	r2, [r3, #144]
	beq	.L1747
	ldr	r2, [r4, #4]
	add	r1, sp, #16
	ldrh	lr, [r6]
	mov	r0, r4
	ldr	ip, [r4, #284]
	ldrh	r3, [r2, #20]
	ldrh	r2, [r2, #28]
	strh	lr, [sp, #18]	@ movhi
	sub	r3, r3, #1
	str	ip, [sp, #24]
	strh	r3, [sp, #16]	@ movhi
	strh	r2, [sp, #20]	@ movhi
	ldr	r3, [r4, #1980]
	str	sp, [sp, #28]
	blx	r3
	ldrb	lr, [sp, #1]	@ zero_extendqisi2
	movw	ip, #65535
	ldrb	r1, [sp, #2]	@ zero_extendqisi2
	movt	ip, 43690
	ldrb	r2, [sp, #3]	@ zero_extendqisi2
	ldrb	r3, [sp, #4]	@ zero_extendqisi2
	orr	r1, r1, lr, lsl #8
	orr	r2, r2, r1, lsl #8
	orr	r3, r3, r2, lsl #8
	cmp	r3, ip
	beq	.L1751
.L1739:
	ldr	r3, [r4, #356]
	cmp	r3, #0
	bne	.L1752
.L1747:
	mov	r0, #0
	add	sp, sp, #32
	@ sp needed
	pop	{r4, r5, r6, pc}
.L1752:
	mov	r0, r4
	bl	print_smart.part.16
	mov	r0, #0
	add	sp, sp, #32
	@ sp needed
	pop	{r4, r5, r6, pc}
.L1751:
	cmp	r0, #10
	cmpne	r0, #0
	bne	.L1739
	ldr	r3, [r4, #308]
	ldr	r1, [r4, #284]
	add	r1, r1, r3
	ldr	r3, [r1, #64]
	cmp	r3, r5
	bne	.L1739
	mov	r2, #328
	ldr	r0, [r4, #1968]
	bl	NAND_Memcpy
	ldr	r3, [r4, #1968]
	ldr	r1, [r3, #168]
	ldr	r2, [r3, #144]
	cmn	r1, #1
	add	r2, r2, #1
	str	r2, [r3, #144]
	moveq	r2, #0
	streq	r2, [r3, #168]
	ldr	r2, [r3, #176]
	cmn	r2, #1
	moveq	r2, #0
	streq	r2, [r3, #176]
	ldr	r2, [r3, #180]
	cmn	r2, #1
	moveq	r2, #0
	streq	r2, [r3, #180]
	b	.L1739
	.size	init_smart_info, .-init_smart_info
	.align	2
	.global	get_used_block_count
	.syntax unified
	.arm
	.type	get_used_block_count, %function
get_used_block_count:
	@ args = 0, pretend = 0, frame = 32
	@ frame_needed = 0, uses_anonymous_args = 0
	push	{r4, lr}
	sub	sp, sp, #32
	ldr	lr, [r0, #4]
	add	r2, sp, #16
	mov	ip, #0
	ldrh	r1, [r1]
	ldr	r4, [r0, #284]
	ldrh	lr, [lr, #28]
	strh	r1, [sp, #2]	@ movhi
	mov	r1, sp
	str	r2, [sp, #12]
	str	r4, [sp, #8]
	ldr	r3, [r0, #1980]
	strh	lr, [sp, #4]	@ movhi
	strh	ip, [sp]	@ movhi
	blx	r3
	ldrb	r1, [sp, #23]	@ zero_extendqisi2
	ldrb	r2, [sp, #24]	@ zero_extendqisi2
	ldrb	r3, [sp, #25]	@ zero_extendqisi2
	ldrb	r0, [sp, #26]	@ zero_extendqisi2
	orr	r2, r2, r1, lsl #8
	orr	r3, r3, r2, lsl #8
	orr	r0, r0, r3, lsl #8
	add	sp, sp, #32
	@ sp needed
	pop	{r4, pc}
	.size	get_used_block_count, .-get_used_block_count
	.align	2
	.global	block_last_page_ecc_error
	.syntax unified
	.arm
	.type	block_last_page_ecc_error, %function
block_last_page_ecc_error:
	@ args = 0, pretend = 0, frame = 48
	@ frame_needed = 0, uses_anonymous_args = 0
	push	{r4, r5, r6, r7, r8, r9, r10, fp, lr}
	mov	r5, r0
	movw	r0, #:lower16:.LC220
	sub	sp, sp, #52
	movt	r0, #:upper16:.LC220
	mov	r8, r1
	bl	NAND_Print
	mov	r0, #4096
	bl	NAND_Malloc
	subs	r3, r0, #0
	str	r3, [sp, #8]
	beq	.L1794
.L1756:
	ldr	r2, [r5, #4]
	ldrh	fp, [r2, #20]
	cmp	fp, #0
	beq	.L1777
	ldr	r3, [sp, #8]
	movw	r7, #:lower16:.LC221
	movt	r7, #:upper16:.LC221
	mov	r4, #0
	sub	r6, r3, #4
.L1759:
	ldrh	r0, [r2, #26]
	add	r4, r4, #1
	bl	nftl_malloc
	cmp	r0, #0
	str	r0, [r6, #4]!
	beq	.L1795
.L1758:
	ldr	r2, [r5, #4]
	ldrh	r3, [r2, #20]
	cmp	r3, r4
	bgt	.L1759
	cmp	r3, #0
	beq	.L1778
	ldr	r10, [sp, #8]
	mov	r3, #0
	movw	r1, #:lower16:.LC222
	movw	r0, #:lower16:.LC225
	mov	r6, r3
	add	r7, sp, #16
	add	r9, sp, #32
	add	r4, sp, #26
	movt	r1, #:upper16:.LC222
	movt	r0, #:upper16:.LC225
	str	r3, [sp, #4]
	str	r1, [sp, #12]
	str	r0, [sp]
.L1764:
	ldrh	r0, [r2, #28]
	uxth	fp, r6
	ldrh	ip, [r8]
	mov	r1, r9
	ldr	r2, [r5, #284]
	strh	r0, [sp, #36]	@ movhi
	mov	r0, r5
	strh	ip, [sp, #34]	@ movhi
	str	r2, [sp, #40]
	str	r7, [sp, #44]
	ldr	r2, [r5, #1980]
	strh	fp, [sp, #32]	@ movhi
	blx	r2
	mov	r2, r7
	mov	ip, #0
.L1761:
	ldrb	r3, [r2], #1	@ zero_extendqisi2
	cmp	r3, #255
	addeq	ip, ip, #1
	cmp	r2, r4
	bne	.L1761
	cmp	ip, #8
	bls	.L1762
	ldrb	r2, [sp, #16]	@ zero_extendqisi2
	cmp	r2, #255
	beq	.L1796
.L1762:
	ldrb	r3, [sp, #17]	@ zero_extendqisi2
	and	r2, r3, #240
	cmp	r2, #192
	beq	.L1797
	cmp	r3, #170
	beq	.L1774
	ldr	r0, [sp]
	bl	NAND_Print
.L1763:
	ldr	r2, [r5, #4]
	add	r6, r6, #1
	add	r10, r10, #4
	ldrh	r3, [r2, #20]
	cmp	r3, r6
	bgt	.L1764
	uxth	fp, r6
.L1757:
	ldrh	lr, [r2, #28]
	mov	r1, r9
	ldr	r2, [r5, #284]
	mov	r0, r5
	ldrh	ip, [r8]
	strh	lr, [sp, #36]	@ movhi
	str	r2, [sp, #40]
	strh	fp, [sp, #32]	@ movhi
	str	r7, [sp, #44]
	strh	ip, [sp, #34]	@ movhi
	ldr	r2, [r5, #1976]
	blx	r2
	cmp	r0, #0
	bne	.L1798
.L1765:
	ldr	r3, [sp, #4]
	cmp	r3, #0
	beq	.L1767
	ldr	r2, [sp, #8]
	mov	r4, #0
	mov	r10, r3
	sub	r6, r2, #4
.L1768:
	ldr	r3, [r5, #4]
	mov	r1, r9
	ldrh	ip, [r8]
	mov	r0, r5
	ldr	r2, [r6, #4]!
	ldrh	r3, [r3, #28]
	strh	r4, [sp, #32]	@ movhi
	add	r4, r4, #1
	strh	ip, [sp, #34]	@ movhi
	strh	r3, [sp, #36]	@ movhi
	str	r2, [sp, #40]
	str	r7, [sp, #44]
	ldr	r3, [r5, #1984]
	blx	r3
	cmp	r4, r10
	bne	.L1768
.L1767:
	ldr	r3, [r5, #4]
	ldrh	r3, [r3, #20]
	cmp	r3, #0
	beq	.L1771
	ldr	r3, [sp, #8]
	mov	r4, #0
	sub	r6, r3, #4
.L1770:
	mov	r1, #0
	ldr	r0, [r6, #4]!
	bl	NAND_Free
	ldr	r3, [r5, #4]
	add	r4, r4, #1
	ldrh	r3, [r3, #20]
	cmp	r3, r4
	bgt	.L1770
.L1771:
	ldr	r0, [sp, #8]
	mov	r1, #0
	bl	NAND_Free
	movw	r0, #:lower16:.LC224
	movt	r0, #:upper16:.LC224
	bl	NAND_Print
	mov	r0, r8
	add	sp, sp, #52
	@ sp needed
	pop	{r4, r5, r6, r7, r8, r9, r10, fp, pc}
.L1774:
	cmp	r0, #10
	cmpne	r0, #0
	beq	.L1799
.L1776:
	ldr	r0, [sp, #12]
	bl	NAND_Print
	b	.L1763
.L1797:
	cmp	r0, #10
	cmpne	r0, #0
	bne	.L1763
	ldr	r2, [sp, #4]
	ldr	r3, [r5, #4]
	ldr	r1, [r5, #284]
	add	r2, r2, #1
	ldr	r0, [r10]
	str	r2, [sp, #4]
	ldrh	r2, [r3, #26]
	bl	NAND_Memcpy
	b	.L1763
.L1799:
	ldr	r2, [sp, #4]
	ldr	r3, [r5, #4]
	ldr	r1, [r5, #284]
	add	r2, r2, #1
	ldr	r0, [r10]
	str	r2, [sp, #4]
	ldrh	r2, [r3, #26]
	bl	NAND_Memcpy
	b	.L1776
.L1795:
	mov	r0, r7
	bl	NAND_Print
	b	.L1758
.L1796:
	ldr	r2, [r5, #4]
	b	.L1757
.L1798:
	ldr	r2, [r5, #1996]
	mov	r1, r9
	mov	r0, r5
	blx	r2
	mov	r0, r5
	bl	out_phy_block_from_free_list
	subs	r8, r0, #0
	beq	.L1800
	ldr	r2, [r5, #4]
	mov	r1, r9
	ldrh	ip, [r8]
	mov	r0, r5
	ldr	r3, [r5, #284]
	ldrh	r2, [r2, #28]
	strh	fp, [sp, #32]	@ movhi
	str	r3, [sp, #40]
	strh	ip, [sp, #34]	@ movhi
	strh	r2, [sp, #36]	@ movhi
	str	r7, [sp, #44]
	ldr	r3, [r5, #1976]
	blx	r3
	b	.L1765
.L1777:
	str	fp, [sp, #4]
	add	r7, sp, #16
	add	r9, sp, #32
	b	.L1757
.L1794:
	movw	r0, #:lower16:.LC221
	movt	r0, #:upper16:.LC221
	bl	NAND_Print
	b	.L1756
.L1800:
	movw	r0, #:lower16:.LC223
	movt	r0, #:upper16:.LC223
	bl	NAND_Print
	b	.L1767
.L1778:
	mov	fp, r3
	add	r7, sp, #16
	str	r3, [sp, #4]
	add	r9, sp, #32
	b	.L1757
	.size	block_last_page_ecc_error, .-block_last_page_ecc_error
	.align	2
	.global	print_nftl_zone
	.syntax unified
	.arm
	.type	print_nftl_zone, %function
print_nftl_zone:
	@ args = 0, pretend = 0, frame = 0
	@ frame_needed = 0, uses_anonymous_args = 0
	@ link register save eliminated.
	ldr	r3, [r0, #356]
	cmp	r3, #0
	bxeq	lr
	b	print_nftl_zone.part.17
	.size	print_nftl_zone, .-print_nftl_zone
	.align	2
	.global	nand_dbg_phy_read
	.syntax unified
	.arm
	.type	nand_dbg_phy_read, %function
nand_dbg_phy_read:
	@ args = 0, pretend = 0, frame = 16
	@ frame_needed = 0, uses_anonymous_args = 0
	push	{r4, r5, r6, r7, lr}
	mov	r5, r0
	sub	sp, sp, #36
	mov	r0, #4096
	mov	r6, r1
	mov	r7, r2
	bl	NAND_Malloc
	subs	r4, r0, #0
	beq	.L1806
.L1804:
	add	r3, sp, #16
	mov	r2, r7
	mov	r1, r6
	str	r3, [sp, #4]
	str	r4, [sp]
	mov	r0, r5
	mov	r3, #8
	bl	PageRead
	ldrb	lr, [sp, #20]	@ zero_extendqisi2
	mov	r5, r0
	ldrb	ip, [sp, #19]	@ zero_extendqisi2
	movw	r0, #:lower16:.LC227
	ldrb	r3, [sp, #18]	@ zero_extendqisi2
	movt	r0, #:upper16:.LC227
	ldrb	r2, [sp, #17]	@ zero_extendqisi2
	stm	sp, {ip, lr}
	ldrb	r1, [sp, #16]	@ zero_extendqisi2
	bl	NAND_Print
	ldrb	lr, [sp, #25]	@ zero_extendqisi2
	movw	r0, #:lower16:.LC228
	ldrb	ip, [sp, #24]	@ zero_extendqisi2
	movt	r0, #:upper16:.LC228
	ldrb	r3, [sp, #23]	@ zero_extendqisi2
	ldrb	r2, [sp, #22]	@ zero_extendqisi2
	stm	sp, {ip, lr}
	ldrb	r1, [sp, #21]	@ zero_extendqisi2
	bl	NAND_Print
	ldrb	ip, [r4, #4]	@ zero_extendqisi2
	movw	r0, #:lower16:.LC229
	ldrb	r3, [r4, #2]	@ zero_extendqisi2
	movt	r0, #:upper16:.LC229
	ldrb	r2, [r4, #1]	@ zero_extendqisi2
	ldrb	r1, [r4]	@ zero_extendqisi2
	str	ip, [sp, #4]
	ldrb	ip, [r4, #3]	@ zero_extendqisi2
	str	ip, [sp]
	bl	NAND_Print
	ldrb	ip, [r4, #10]	@ zero_extendqisi2
	movw	r0, #:lower16:.LC230
	ldrb	r3, [r4, #7]	@ zero_extendqisi2
	movt	r0, #:upper16:.LC230
	ldrb	r2, [r4, #6]	@ zero_extendqisi2
	ldrb	r1, [r4, #5]	@ zero_extendqisi2
	str	ip, [sp, #8]
	ldrb	ip, [r4, #9]	@ zero_extendqisi2
	str	ip, [sp, #4]
	ldrb	ip, [r4, #8]	@ zero_extendqisi2
	str	ip, [sp]
	bl	NAND_Print
	mov	r0, r4
	mov	r1, #0
	bl	NAND_Free
	mov	r0, r5
	add	sp, sp, #36
	@ sp needed
	pop	{r4, r5, r6, r7, pc}
.L1806:
	movw	r0, #:lower16:.LC226
	ldr	r1, .L1807
	movt	r0, #:upper16:.LC226
	bl	NAND_Print
	b	.L1804
.L1808:
	.align	2
.L1807:
	.word	.LANCHOR2+648
	.size	nand_dbg_phy_read, .-nand_dbg_phy_read
	.align	2
	.global	nand_dbg_zone_phy_read
	.syntax unified
	.arm
	.type	nand_dbg_zone_phy_read, %function
nand_dbg_zone_phy_read:
	@ args = 0, pretend = 0, frame = 32
	@ frame_needed = 0, uses_anonymous_args = 0
	push	{r4, r5, r6, r7, lr}
	mov	r6, r0
	sub	sp, sp, #52
	mov	r0, #4096
	mov	r5, r1
	mov	r7, r2
	bl	NAND_Malloc
	subs	r4, r0, #0
	beq	.L1812
.L1810:
	ldr	r2, [r6, #4]
	add	r5, r5, r5, lsl #3
	add	ip, sp, #32
	ldr	r3, [r6, #1980]
	lsl	r5, r5, #2
	mov	lr, #8
	ldr	r2, [r2, #32]
	add	r1, sp, #16
	mov	r0, r6
	ldrh	r2, [r2, r5]
	strh	lr, [sp, #20]	@ movhi
	str	ip, [sp, #28]
	strh	r2, [sp, #18]	@ movhi
	strh	r7, [sp, #16]	@ movhi
	str	r4, [sp, #24]
	blx	r3
	ldrb	lr, [sp, #36]	@ zero_extendqisi2
	mov	r5, r0
	ldrb	ip, [sp, #35]	@ zero_extendqisi2
	movw	r0, #:lower16:.LC227
	ldrb	r3, [sp, #34]	@ zero_extendqisi2
	movt	r0, #:upper16:.LC227
	ldrb	r2, [sp, #33]	@ zero_extendqisi2
	stm	sp, {ip, lr}
	ldrb	r1, [sp, #32]	@ zero_extendqisi2
	bl	NAND_Print
	ldrb	lr, [sp, #41]	@ zero_extendqisi2
	movw	r0, #:lower16:.LC228
	ldrb	ip, [sp, #40]	@ zero_extendqisi2
	movt	r0, #:upper16:.LC228
	ldrb	r3, [sp, #39]	@ zero_extendqisi2
	ldrb	r2, [sp, #38]	@ zero_extendqisi2
	stm	sp, {ip, lr}
	ldrb	r1, [sp, #37]	@ zero_extendqisi2
	bl	NAND_Print
	ldrb	ip, [r4, #4]	@ zero_extendqisi2
	movw	r0, #:lower16:.LC229
	ldrb	r3, [r4, #2]	@ zero_extendqisi2
	movt	r0, #:upper16:.LC229
	ldrb	r2, [r4, #1]	@ zero_extendqisi2
	ldrb	r1, [r4]	@ zero_extendqisi2
	str	ip, [sp, #4]
	ldrb	ip, [r4, #3]	@ zero_extendqisi2
	str	ip, [sp]
	bl	NAND_Print
	ldrb	ip, [r4, #10]	@ zero_extendqisi2
	movw	r0, #:lower16:.LC230
	ldrb	r3, [r4, #7]	@ zero_extendqisi2
	movt	r0, #:upper16:.LC230
	ldrb	r2, [r4, #6]	@ zero_extendqisi2
	ldrb	r1, [r4, #5]	@ zero_extendqisi2
	str	ip, [sp, #8]
	ldrb	ip, [r4, #9]	@ zero_extendqisi2
	str	ip, [sp, #4]
	ldrb	ip, [r4, #8]	@ zero_extendqisi2
	str	ip, [sp]
	bl	NAND_Print
	mov	r0, r4
	mov	r1, #0
	bl	NAND_Free
	mov	r0, r5
	add	sp, sp, #52
	@ sp needed
	pop	{r4, r5, r6, r7, pc}
.L1812:
	movw	r0, #:lower16:.LC226
	ldr	r1, .L1813
	movt	r0, #:upper16:.LC226
	bl	NAND_Print
	b	.L1810
.L1814:
	.align	2
.L1813:
	.word	.LANCHOR2+668
	.size	nand_dbg_zone_phy_read, .-nand_dbg_zone_phy_read
	.align	2
	.global	nand_dbg_zone_phy_write
	.syntax unified
	.arm
	.type	nand_dbg_zone_phy_write, %function
nand_dbg_zone_phy_write:
	@ args = 0, pretend = 0, frame = 32
	@ frame_needed = 0, uses_anonymous_args = 0
	push	{r4, r5, r6, r7, r8, lr}
	mov	r5, r0
	sub	sp, sp, #32
	mov	r0, #8192
	mov	r4, r1
	mov	r7, r2
	bl	NAND_Malloc
	subs	r6, r0, #0
	beq	.L1818
.L1816:
	ldr	r3, [r5, #4]
	mov	r0, r6
	mov	r2, #4096
	mov	r1, #165
	add	r4, r4, r4, lsl #3
	ldr	r8, [r3, #32]
	bl	NAND_Memset
	ldr	lr, [r5, #4]
	lsl	r4, r4, #2
	mvn	r3, #0
	mvn	r2, #90
	strb	r3, [sp, #16]
	strb	r3, [sp, #17]
	add	ip, sp, #16
	strb	r3, [sp, #18]
	mov	r1, sp
	strb	r3, [sp, #19]
	mov	r0, r5
	strb	r3, [sp, #20]
	strb	r3, [sp, #23]
	strb	r3, [sp, #24]
	strb	r3, [sp, #25]
	strb	r3, [sp, #26]
	strb	r2, [sp, #21]
	ldrh	r3, [lr, #28]
	strb	r2, [sp, #22]
	ldrh	r2, [r8, r4]
	strh	r3, [sp, #4]	@ movhi
	str	ip, [sp, #12]
	strh	r2, [sp, #2]	@ movhi
	ldr	r3, [r5, #1984]
	strh	r7, [sp]	@ movhi
	str	r6, [sp, #8]
	blx	r3
	mov	r1, #0
	mov	r4, r0
	mov	r0, r6
	bl	NAND_Free
	mov	r0, r4
	add	sp, sp, #32
	@ sp needed
	pop	{r4, r5, r6, r7, r8, pc}
.L1818:
	movw	r0, #:lower16:.LC231
	ldr	r1, .L1819
	movt	r0, #:upper16:.LC231
	bl	NAND_Print
	b	.L1816
.L1820:
	.align	2
.L1819:
	.word	.LANCHOR2+692
	.size	nand_dbg_zone_phy_write, .-nand_dbg_zone_phy_write
	.align	2
	.global	nand_dbg_phy_write
	.syntax unified
	.arm
	.type	nand_dbg_phy_write, %function
nand_dbg_phy_write:
	@ args = 0, pretend = 0, frame = 16
	@ frame_needed = 0, uses_anonymous_args = 0
	push	{r4, r5, r6, r7, lr}
	mov	r5, r0
	sub	sp, sp, #28
	mov	r0, #8192
	mov	r6, r1
	mov	r7, r2
	bl	NAND_Malloc
	subs	r4, r0, #0
	beq	.L1824
.L1822:
	mov	r0, r4
	mov	r2, #4096
	mov	r1, #165
	bl	NAND_Memset
	add	r3, sp, #8
	mvn	ip, #0
	mvn	lr, #90
	mov	r2, r7
	mov	r1, r6
	str	r3, [sp, #4]
	str	r4, [sp]
	mov	r3, #8
	mov	r0, r5
	strb	ip, [sp, #8]
	strb	ip, [sp, #9]
	strb	ip, [sp, #10]
	strb	ip, [sp, #11]
	strb	ip, [sp, #12]
	strb	ip, [sp, #15]
	strb	ip, [sp, #16]
	strb	ip, [sp, #17]
	strb	ip, [sp, #18]
	strb	lr, [sp, #13]
	strb	lr, [sp, #14]
	bl	PageWrite
	mov	r1, #0
	mov	r5, r0
	mov	r0, r4
	bl	NAND_Free
	mov	r0, r5
	add	sp, sp, #28
	@ sp needed
	pop	{r4, r5, r6, r7, pc}
.L1824:
	movw	r0, #:lower16:.LC231
	ldr	r1, .L1825
	movt	r0, #:upper16:.LC231
	bl	NAND_Print
	b	.L1822
.L1826:
	.align	2
.L1825:
	.word	.LANCHOR2+716
	.size	nand_dbg_phy_write, .-nand_dbg_phy_write
	.align	2
	.global	nand_dbg_phy_erase
	.syntax unified
	.arm
	.type	nand_dbg_phy_erase, %function
nand_dbg_phy_erase:
	@ args = 0, pretend = 0, frame = 0
	@ frame_needed = 0, uses_anonymous_args = 0
	@ link register save eliminated.
	b	BlockErase
	.size	nand_dbg_phy_erase, .-nand_dbg_phy_erase
	.align	2
	.global	nand_dbg_single_phy_erase
	.syntax unified
	.arm
	.type	nand_dbg_single_phy_erase, %function
nand_dbg_single_phy_erase:
	@ args = 0, pretend = 0, frame = 0
	@ frame_needed = 0, uses_anonymous_args = 0
	@ link register save eliminated.
	b	nand_physic_erase_block
	.size	nand_dbg_single_phy_erase, .-nand_dbg_single_phy_erase
	.align	2
	.global	clean_block_list
	.syntax unified
	.arm
	.type	clean_block_list, %function
clean_block_list:
	@ args = 0, pretend = 0, frame = 0
	@ frame_needed = 0, uses_anonymous_args = 0
	push	{r4, r5, r6, lr}
	mov	r5, r0
	mov	r4, #0
	mvn	r6, #0
	b	.L1832
.L1830:
	strh	r4, [r0, #4]	@ movhi
	strh	r4, [r0, #2]	@ movhi
	str	r6, [r0, #8]
	str	r4, [r0, #12]
	str	r4, [r0, #16]
	str	r4, [r0, #20]
	str	r4, [r0, #24]
	str	r4, [r0, #28]
	str	r4, [r0, #32]
.L1832:
	mov	r0, r5
	bl	out_phy_block_from_free_list
	cmp	r0, #0
	bne	.L1830
	ldr	r3, [r5, #200]
	cmp	r3, #0
	addne	ip, r5, #188
	mvnne	r1, #0
	beq	.L1841
.L1834:
	ldr	r2, [r3, #12]
	str	r2, [r5, #200]
	ldr	r2, [r3, #12]
	cmp	r2, #0
	strne	ip, [r2, #16]
	strh	r0, [r3, #4]	@ movhi
	strh	r0, [r3, #2]	@ movhi
	str	r1, [r3, #8]
	str	r0, [r3, #12]
	str	r0, [r3, #16]
	str	r0, [r3, #20]
	str	r0, [r3, #24]
	str	r0, [r3, #28]
	str	r0, [r3, #32]
	ldr	r3, [r5, #200]
	cmp	r3, #0
	bne	.L1834
	pop	{r4, r5, r6, pc}
.L1841:
	pop	{r4, r5, r6, pc}
	.size	clean_block_list, .-clean_block_list
	.align	2
	.global	nand_clean_zone_table2
	.syntax unified
	.arm
	.type	nand_clean_zone_table2, %function
nand_clean_zone_table2:
	@ args = 0, pretend = 0, frame = 0
	@ frame_needed = 0, uses_anonymous_args = 0
	ldr	r3, [r0, #4]
	push	{r4, r5, r6, r7, r8, r9, r10, lr}
	mov	r5, r0
	ldr	r0, [r0, #24]
	ldrb	r1, [r3, #8]	@ zero_extendqisi2
	bl	__aeabi_uidiv
	mov	r2, r0
	movw	r0, #:lower16:.LC232
	lsl	r8, r2, #2
	ldrb	r1, [r5, #16]	@ zero_extendqisi2
	movt	r0, #:upper16:.LC232
	bl	NAND_Print
	lsrs	r9, r8, #20
	beq	.L1843
	add	r6, r9, #12
	movw	r7, #:lower16:.LC233
	add	r6, r5, r6, lsl #2
	movt	r7, #:upper16:.LC233
	add	r4, r5, #48
.L1844:
	ldr	r0, [r4, #4]!
	mov	r2, #1048576
	mov	r1, #255
	bl	NAND_Memset
	mov	r1, #1048576
	mov	r0, r7
	bl	NAND_Print
	cmp	r4, r6
	bne	.L1844
.L1843:
	ubfx	r8, r8, #0, #20
	cmp	r8, #0
	bne	.L1856
.L1845:
	mov	r0, #0
	add	ip, r5, #320
	mvn	r4, #0
	add	r3, r5, #396
	mov	r1, r0
	mov	r2, r0
	str	r0, [r5, #292]
	add	lr, r5, #352
	strh	r4, [ip]	@ movhi
	add	ip, r5, #392
	str	r0, [r5, #324]
	strh	r4, [lr]	@ movhi
	str	r0, [r5, #172]
	str	r0, [r5, #176]
	str	r0, [r5, #164]
	str	r0, [r5, #168]
	str	r0, [r5, #180]
	str	r0, [r5, #184]
	str	r0, [r5, #208]
	str	r0, [r5, #212]
	str	r0, [r5, #200]
	str	r0, [r5, #204]
	str	r0, [r5, #216]
	str	r0, [r5, #220]
	str	r0, [r5, #244]
	str	r0, [r5, #248]
	str	r0, [r5, #236]
	str	r0, [r5, #240]
	str	r0, [r5, #252]
	str	r0, [r5, #256]
	strh	r0, [r5, #20]	@ movhi
	strh	r0, [r5, #22]	@ movhi
	strh	r0, [ip]	@ movhi
.L1846:
	strh	r1, [r3]	@ movhi
	add	r1, r1, #1
	cmp	r1, #10
	strh	r2, [r3, #2]	@ movhi
	str	r2, [r3, #4]
	add	r3, r3, #16
	str	r2, [r3, #-8]
	str	r2, [r3, #-4]
	bne	.L1846
	add	r0, r5, #556
	mov	ip, #255
	movw	r1, #394
	movw	r3, #558
	strh	ip, [r0]	@ movhi
	mov	r0, #0
	str	r2, [r5, #560]
	str	r2, [r5, #564]
	str	r2, [r5, #568]
	strh	r2, [r5, r1]	@ movhi
	strh	r2, [r5, r3]	@ movhi
	pop	{r4, r5, r6, r7, r8, r9, r10, pc}
.L1856:
	add	r9, r5, r9, lsl #2
	mov	r2, r8
	mov	r1, #255
	ldr	r0, [r9, #52]
	bl	NAND_Memset
	movw	r0, #:lower16:.LC233
	mov	r1, r8
	movt	r0, #:upper16:.LC233
	bl	NAND_Print
	b	.L1845
	.size	nand_clean_zone_table2, .-nand_clean_zone_table2
	.align	2
	.global	nand_power_off_ecc_error
	.syntax unified
	.arm
	.type	nand_power_off_ecc_error, %function
nand_power_off_ecc_error:
	@ args = 0, pretend = 0, frame = 0
	@ frame_needed = 0, uses_anonymous_args = 0
	push	{r4, r5, r6, lr}
	mov	r4, r2
	ldrb	r3, [r2]	@ zero_extendqisi2
	cmp	r3, #255
	beq	.L1858
	movw	r0, #:lower16:.LC234
	movt	r0, #:upper16:.LC234
	bl	NAND_Print
.L1859:
	movw	r0, #:lower16:.LC238
	ldr	r1, .L1878
	mov	r3, #1
	movw	r2, #2821
	movt	r0, #:upper16:.LC238
	movw	r5, #:lower16:.LC237
	bl	NAND_Print
	movw	r0, #:lower16:.LC239
	mov	r6, r4
	movt	r0, #:upper16:.LC239
	add	r4, r4, #1
	bl	NAND_Print
	mov	r0, r5
	ldrb	r1, [r6], #16	@ zero_extendqisi2
	movt	r0, #:upper16:.LC237
	mov	r5, r0
	bl	NAND_Print
.L1865:
	ldrb	r1, [r4], #1	@ zero_extendqisi2
	mov	r0, r5
	bl	NAND_Print
	cmp	r6, r4
	bne	.L1865
	movw	r0, #:lower16:.LC132
	movt	r0, #:upper16:.LC132
	bl	NAND_Print
	movw	r0, #:lower16:.LC132
	movt	r0, #:upper16:.LC132
	bl	NAND_Print
	mov	r0, #1
	pop	{r4, r5, r6, pc}
.L1858:
	mov	r5, r0
	mov	r6, r1
	bl	is_physic_info_enable_crc
	cmp	r0, #0
	bne	.L1875
	ldrb	r3, [r4, #11]	@ zero_extendqisi2
	cmp	r3, #165
	bne	.L1862
	ldrb	r3, [r4, #12]	@ zero_extendqisi2
	cmp	r3, #165
	beq	.L1876
.L1862:
	movw	r0, #:lower16:.LC236
	movt	r0, #:upper16:.LC236
	bl	NAND_Print
	b	.L1859
.L1875:
	mov	r2, r6
	mov	r3, r4
	add	r1, r5, #308
	ldr	r0, [r5, #4]
	bl	crc_wrong.isra.18
	cmp	r0, #0
	bne	.L1877
.L1861:
	mov	r0, #0
	pop	{r4, r5, r6, pc}
.L1876:
	ldrb	r3, [r4, #13]	@ zero_extendqisi2
	cmp	r3, #165
	bne	.L1862
	b	.L1861
.L1877:
	movw	r0, #:lower16:.LC235
	movt	r0, #:upper16:.LC235
	bl	NAND_Print
	b	.L1859
.L1879:
	.align	2
.L1878:
	.word	.LANCHOR2+736
	.size	nand_power_off_ecc_error, .-nand_power_off_ecc_error
	.align	2
	.global	recover_phy_page_mapping
	.syntax unified
	.arm
	.type	recover_phy_page_mapping, %function
recover_phy_page_mapping:
	@ args = 0, pretend = 0, frame = 40
	@ frame_needed = 0, uses_anonymous_args = 0
	push	{r4, r5, r6, r7, r8, r9, r10, fp, lr}
	mov	r8, r2
	mov	r7, r0
	ldr	r2, [r0, #308]
	sub	sp, sp, #44
	mov	r9, r1
	mov	r0, r8
	mov	r1, #255
	bl	NAND_Memset
	ldr	r2, [r7, #4]
	ldrh	r3, [r2, #20]
	cmp	r3, #0
	beq	.L1903
	movw	fp, #:lower16:.LC245
	movw	r10, #13107
	movw	r3, #:lower16:.LC243
	movt	fp, #:upper16:.LC245
	movt	r10, 43537
	mov	r5, #0
	add	r4, sp, #18
	movt	r3, #:upper16:.LC243
	str	r3, [sp, #4]
.L1896:
	ldrh	ip, [r2, #28]
	add	r1, sp, #24
	ldr	r3, [r7, #284]
	mov	r0, r7
	ldrh	r2, [r9]
	strh	ip, [sp, #28]	@ movhi
	add	ip, sp, #8
	str	r3, [sp, #32]
	strh	r5, [sp, #24]	@ movhi
	ldr	r3, [r7, #1980]
	str	ip, [sp, #36]
	strh	r2, [sp, #26]	@ movhi
	blx	r3
	add	r3, sp, #8
	mov	r6, r0
	mov	r1, #0
.L1883:
	ldrb	r2, [r3], #1	@ zero_extendqisi2
	cmp	r2, #255
	addeq	r1, r1, #1
	cmp	r3, r4
	bne	.L1883
	cmp	r1, #8
	bls	.L1884
	ldrb	r3, [sp, #8]	@ zero_extendqisi2
	cmp	r3, #255
	beq	.L1919
.L1884:
	ldrb	r3, [sp, #9]	@ zero_extendqisi2
	and	r2, r3, #240
	cmp	r2, #192
	beq	.L1920
	cmp	r3, #170
	beq	.L1921
.L1901:
	ldrb	r0, [sp, #10]	@ zero_extendqisi2
	ldrb	r1, [sp, #11]	@ zero_extendqisi2
	ldrb	r2, [sp, #12]	@ zero_extendqisi2
	orr	r3, r0, r3, lsl #8
	orr	r3, r1, r3, lsl #8
	orr	r3, r2, r3, lsl #8
	cmp	r3, r10
	beq	.L1922
	movw	r0, #:lower16:.LC246
	mov	r1, r5
	movt	r0, #:upper16:.LC246
	bl	NAND_Print
.L1891:
	cmp	r6, #0
	cmpne	r6, #10
	bne	.L1889
.L1894:
	ldr	r2, [r7, #4]
	add	r5, r5, #1
	add	r8, r8, #4
	ldrh	r3, [r2, #20]
	cmp	r3, r5
	bgt	.L1896
	mov	r0, r5
.L1909:
	add	sp, sp, #44
	@ sp needed
	pop	{r4, r5, r6, r7, r8, r9, r10, fp, pc}
.L1922:
	cmp	r6, #10
	cmpne	r6, #0
	bne	.L1891
	str	r10, [r8]
	mov	r1, r5
	ldr	r0, [sp, #4]
	bl	NAND_Print
	cmp	r6, #0
	cmpne	r6, #10
	beq	.L1894
.L1889:
	movw	r0, #:lower16:.LC244
	mov	r2, r5
	ldrh	r1, [r9]
	movt	r0, #:upper16:.LC244
	bl	NAND_Print
	movw	r0, #65535
	add	sp, sp, #44
	@ sp needed
	pop	{r4, r5, r6, r7, r8, r9, r10, fp, pc}
.L1919:
	cmp	r6, #10
	cmpne	r6, #0
	beq	.L1923
	ldrb	r3, [sp, #9]	@ zero_extendqisi2
	and	r2, r3, #240
	cmp	r2, #192
	beq	.L1891
	cmp	r3, #170
	bne	.L1901
.L1921:
	mov	r1, r5
	mov	r0, fp
	bl	NAND_Print
	b	.L1891
.L1920:
	cmp	r6, #10
	cmpne	r6, #0
	bne	.L1891
	add	r2, sp, #8
	ldr	r1, [r7, #284]
	mov	r0, r7
	bl	nand_power_off_ecc_error
	cmp	r0, #0
	bne	.L1924
	ldrb	r0, [sp, #9]	@ zero_extendqisi2
	ldrb	r1, [sp, #10]	@ zero_extendqisi2
	ldrb	r2, [sp, #11]	@ zero_extendqisi2
	ldrb	r3, [sp, #12]	@ zero_extendqisi2
	orr	r1, r1, r0, lsl #8
	orr	r2, r2, r1, lsl #8
	orr	r3, r3, r2, lsl #8
	bic	r3, r3, #-268435456
	str	r3, [r8]
	ldr	r2, [r7, #28]
	cmp	r2, r3
	bhi	.L1891
	movw	r0, #:lower16:.LC242
	mov	r2, r5
	movt	r0, #:upper16:.LC242
	ldrh	r1, [r9]
	bl	NAND_Print
	mvn	r3, #0
	str	r3, [r8]
	b	.L1891
.L1924:
	movw	r0, #:lower16:.LC241
	movt	r0, #:upper16:.LC241
	bl	NAND_Print
	b	.L1889
.L1923:
	movw	r0, #:lower16:.LC240
	mov	r1, r5
	movt	r0, #:upper16:.LC240
	bl	NAND_Print
	mov	r0, r5
	add	sp, sp, #44
	@ sp needed
	pop	{r4, r5, r6, r7, r8, r9, r10, fp, pc}
.L1903:
	mov	r0, r3
	b	.L1909
	.size	recover_phy_page_mapping, .-recover_phy_page_mapping
	.align	2
	.global	recover_block_phy_page_mapping
	.syntax unified
	.arm
	.type	recover_block_phy_page_mapping, %function
recover_block_phy_page_mapping:
	@ args = 0, pretend = 0, frame = 40
	@ frame_needed = 0, uses_anonymous_args = 0
	push	{r4, r5, r6, r7, r8, r9, r10, fp, lr}
	mov	r8, r2
	mov	r5, r0
	ldr	r2, [r0, #308]
	sub	sp, sp, #52
	mov	r7, r1
	mov	r0, r8
	mov	r1, #255
	bl	NAND_Memset
	ldr	r3, [r5, #4]
	ldrh	r2, [r3, #20]
	cmp	r2, #0
	beq	.L1949
	movw	r10, #:lower16:.LC250
	movw	fp, #:lower16:.LC249
	movw	r2, #:lower16:.LC242
	movt	r10, #:upper16:.LC250
	movt	fp, #:upper16:.LC249
	mov	r4, #0
	add	r9, sp, #16
	movt	r2, #:upper16:.LC242
	str	r2, [sp, #12]
.L1938:
	ldrh	ip, [r3, #28]
	add	r1, sp, #32
	ldr	r3, [r5, #284]
	mov	r0, r5
	ldrh	r2, [r7]
	strh	ip, [sp, #36]	@ movhi
	str	r3, [sp, #40]
	strh	r4, [sp, #32]	@ movhi
	str	r9, [sp, #44]
	strh	r2, [sp, #34]	@ movhi
	ldr	r3, [r5, #1980]
	blx	r3
	subs	r6, r0, #0
	bge	.L1927
	movw	r0, #:lower16:.LC247
	mov	r1, r6
	mov	r3, r4
	ldrh	r2, [r7]
	movt	r0, #:upper16:.LC247
	bl	NAND_Print
	ldr	r3, [r5, #1980]
	add	r1, sp, #32
	mov	r0, r5
	blx	r3
	subs	r6, r0, #0
	bge	.L1927
	movw	r0, #:lower16:.LC247
	mov	r3, r4
	ldrh	r2, [r7]
	mov	r1, r6
	movt	r0, #:upper16:.LC247
	bl	NAND_Print
	mov	r3, #1
	movw	r0, #:lower16:.LC248
	ldrh	r2, [r7]
	mov	r1, r6
	str	r3, [sp]
	movt	r0, #:upper16:.LC248
	mov	r3, r4
	bl	NAND_Print
	ldrb	r3, [sp, #17]	@ zero_extendqisi2
	and	r3, r3, #240
	cmp	r3, #192
	beq	.L1933
.L1930:
	mov	r3, r9
	add	r1, sp, #26
	mov	r0, #0
.L1936:
	ldrb	r2, [r3], #1	@ zero_extendqisi2
	cmp	r2, #255
	addeq	r0, r0, #1
	cmp	r3, r1
	bne	.L1936
	cmp	r0, #8
	bls	.L1937
	ldrb	r3, [sp, #16]	@ zero_extendqisi2
	cmp	r3, #255
	beq	.L1933
.L1937:
	mov	r2, r4
	ldrh	r1, [r7]
	mov	r0, r10
	bl	NAND_Print
.L1933:
	ldr	r3, [r5, #4]
	add	r4, r4, #1
	add	r8, r8, #4
	ldrh	r2, [r3, #20]
	cmp	r2, r4
	bgt	.L1938
.L1949:
	mov	r0, #0
	add	sp, sp, #52
	@ sp needed
	pop	{r4, r5, r6, r7, r8, r9, r10, fp, pc}
.L1927:
	ldrb	r3, [sp, #17]	@ zero_extendqisi2
	and	r3, r3, #240
	cmp	r3, #192
	bne	.L1930
	cmp	r6, #10
	cmpne	r6, #0
	bne	.L1933
	mov	r2, r9
	ldr	r1, [r5, #284]
	mov	r0, r5
	bl	nand_power_off_ecc_error
	cmp	r0, #0
	bne	.L1951
	ldrb	r0, [sp, #17]	@ zero_extendqisi2
	ldrb	r1, [sp, #18]	@ zero_extendqisi2
	ldrb	r2, [sp, #19]	@ zero_extendqisi2
	ldrb	r3, [sp, #20]	@ zero_extendqisi2
	orr	r1, r1, r0, lsl #8
	orr	r2, r2, r1, lsl #8
	orr	r3, r3, r2, lsl #8
	bic	r3, r3, #-268435456
	str	r3, [r8]
	ldr	r2, [r5, #28]
	cmp	r2, r3
	bhi	.L1933
	mov	r2, r4
	ldrh	r1, [r7]
	ldr	r0, [sp, #12]
	bl	NAND_Print
	mvn	r3, #0
	str	r3, [r8]
	b	.L1933
.L1951:
	mov	r0, fp
	bl	NAND_Print
	b	.L1933
	.size	recover_block_phy_page_mapping, .-recover_block_phy_page_mapping
	.align	2
	.global	get_used_page_num
	.syntax unified
	.arm
	.type	get_used_page_num, %function
get_used_page_num:
	@ args = 0, pretend = 0, frame = 56
	@ frame_needed = 0, uses_anonymous_args = 0
	ldr	ip, [r0, #4]
	push	{r4, r5, r6, r7, r8, r9, r10, fp, lr}
	mov	r8, #0
	sub	sp, sp, #68
	str	r8, [r2]
	ldrh	r9, [ip, #20]
	cmp	r9, r8
	beq	.L1953
	mov	r6, r3
	mov	r10, r2
	movw	r3, #:lower16:.LC251
	movw	r2, #:lower16:.LC252
	cmp	r6, #0
	movt	r3, #:upper16:.LC251
	movt	r2, #:upper16:.LC252
	str	r10, [sp, #16]
	str	r1, [sp, #24]
	mov	r5, r0
	str	r3, [sp, #12]
	mov	r9, #1
	str	r2, [sp, #20]
	mov	r10, r1
	beq	.L1954
.L1994:
	ldr	r2, [r6, #4]
	ldrb	r2, [r2, r8]	@ zero_extendqisi2
	cmp	r2, #0
	bne	.L1954
	ldr	r2, [r6, #8]
	ldrh	r7, [ip, #26]
	ldrb	fp, [r2, r8]	@ zero_extendqisi2
	add	r7, r7, fp
.L1955:
	ldrh	r2, [r10]
	add	r1, sp, #48
	ldrh	ip, [ip, #28]
	mov	r0, r5
	strh	r8, [sp, #48]	@ movhi
	strh	r2, [sp, #50]	@ movhi
	strh	ip, [sp, #52]	@ movhi
	str	fp, [sp, #56]
	str	r7, [sp, #60]
	ldr	r2, [r5, #1980]
	blx	r2
	cmp	r0, #0
	cmpne	r0, #10
	mov	r4, r0
	bne	.L1991
.L1956:
	sub	r2, r7, #1
	add	r0, r7, #9
	mov	ip, #0
.L1958:
	ldrb	r3, [r2, #1]!	@ zero_extendqisi2
	cmp	r3, #255
	addeq	ip, ip, #1
	cmp	r2, r0
	bne	.L1958
	cmp	ip, #8
	bls	.L1959
	ldrb	r2, [r7]	@ zero_extendqisi2
	cmp	r2, #255
	beq	.L1992
.L1959:
	cmp	r4, #10
	cmpne	r4, #0
	moveq	r4, #1
	movne	r4, #0
	cmp	fp, #0
	moveq	r4, #0
	andne	r4, r4, #1
	cmp	r4, #0
	beq	.L1962
	mov	r2, r7
	mov	r1, fp
	mov	r0, r5
	bl	nand_power_off_ecc_error
	cmp	r0, #0
	bne	.L1993
	ldr	r2, [r6, #4]
	mov	r1, #1
	strb	r1, [r2, r8]
	ldr	r2, [r6]
	cmp	r2, r9
	strcc	r9, [r6]
.L1962:
	ldr	ip, [r5, #4]
	add	r8, r8, #1
	add	r1, r9, #1
	ldrh	r2, [ip, #20]
	cmp	r2, r9
	bls	.L1953
	cmp	r6, #0
	mov	r9, r1
	bne	.L1994
.L1954:
	ldrb	r2, [ip, #8]	@ zero_extendqisi2
	cmp	r2, #8
	ldreq	fp, [r5, #284]
	addeq	r7, sp, #32
	addne	r7, sp, #32
	movne	fp, #0
	b	.L1955
.L1991:
	mov	r2, r8
	ldrh	r1, [r10]
	ldr	r0, [sp, #12]
	bl	NAND_Print
	ldr	r3, [sp, #16]
	ldr	r2, [r3]
	add	r2, r2, #1
	str	r2, [r3]
	b	.L1956
.L1993:
	ldr	r0, [sp, #20]
	bl	NAND_Print
	b	.L1962
.L1953:
	mov	r8, r9
.L1981:
	mov	r0, r8
	add	sp, sp, #68
	@ sp needed
	pop	{r4, r5, r6, r7, r8, r9, r10, fp, pc}
.L1992:
	ldr	r3, [r5, #4]
	ldrh	r2, [r3, #20]
	cmp	r2, r8
	bls	.L1981
	ldr	r9, [sp, #24]
	movw	r2, #:lower16:.LC253
	movw	r1, #:lower16:.LC227
	movw	r0, #:lower16:.LC228
	add	fp, r8, #1
	mov	r10, r8
	movt	r2, #:upper16:.LC253
	movt	r1, #:upper16:.LC227
	movt	r0, #:upper16:.LC228
	str	r2, [sp, #12]
	str	r1, [sp, #16]
	str	r0, [sp, #20]
	str	r8, [sp, #28]
.L1970:
	cmp	r6, #0
	beq	.L1976
	ldr	r2, [r6, #4]
	ldrb	r2, [r2, r10]	@ zero_extendqisi2
	cmp	r2, #0
	addne	r4, sp, #32
	movne	r8, #0
	ldreq	r2, [r6, #8]
	ldrheq	r4, [r3, #26]
	ldrbeq	r8, [r2, r10]	@ zero_extendqisi2
	addeq	r4, r4, r8
.L1965:
	ldrh	r2, [r3, #28]
	add	r1, sp, #48
	ldrh	r3, [r9]
	mov	r0, r5
	strh	r10, [sp, #48]	@ movhi
	strh	r2, [sp, #52]	@ movhi
	strh	r3, [sp, #50]	@ movhi
	str	r8, [sp, #56]
	ldr	r3, [r5, #1980]
	str	r4, [sp, #60]
	blx	r3
	sub	r3, r4, #1
	mov	r7, r0
	add	r1, r4, #9
	mov	r0, #0
.L1967:
	ldrb	r2, [r3, #1]!	@ zero_extendqisi2
	cmp	r2, #255
	addeq	r0, r0, #1
	cmp	r1, r3
	bne	.L1967
	cmp	r0, #8
	bls	.L1968
	ldrb	r3, [r4]	@ zero_extendqisi2
	cmp	r3, #255
	beq	.L1978
.L1968:
	mov	r2, r10
	ldrh	r1, [r9]
	ldr	r0, [sp, #12]
	bl	NAND_Print
	ldrb	ip, [r4, #4]	@ zero_extendqisi2
	ldrb	r3, [r4, #2]	@ zero_extendqisi2
	ldrb	r2, [r4, #1]	@ zero_extendqisi2
	ldrb	r1, [r4]	@ zero_extendqisi2
	str	ip, [sp, #4]
	ldrb	ip, [r4, #3]	@ zero_extendqisi2
	ldr	r0, [sp, #16]
	str	ip, [sp]
	bl	NAND_Print
	ldrb	ip, [r4, #9]	@ zero_extendqisi2
	ldrb	r3, [r4, #7]	@ zero_extendqisi2
	ldrb	r2, [r4, #6]	@ zero_extendqisi2
	ldrb	r1, [r4, #5]	@ zero_extendqisi2
	str	ip, [sp, #4]
	ldrb	ip, [r4, #8]	@ zero_extendqisi2
	ldr	r0, [sp, #20]
	str	ip, [sp]
	bl	NAND_Print
	cmp	r7, #10
	cmpne	r7, #0
	moveq	r7, #1
	movne	r7, #0
	cmp	r8, #0
	moveq	r8, #0
	andne	r8, r7, #1
	cmp	r8, #0
	beq	.L1978
	ldr	r3, [r6, #4]
	mov	r2, #1
	mov	r1, fp
	strb	r2, [r3, r10]
	ldr	r3, [r6]
	cmp	r3, fp
	strcc	fp, [r6]
.L1969:
	ldr	r3, [r5, #4]
	add	fp, fp, #1
	add	r10, r10, #1
	ldrh	r2, [r3, #20]
	cmp	r2, r1
	bhi	.L1970
	ldr	r8, [sp, #28]
	mov	r0, r8
	add	sp, sp, #68
	@ sp needed
	pop	{r4, r5, r6, r7, r8, r9, r10, fp, pc}
.L1978:
	mov	r1, fp
	b	.L1969
.L1976:
	add	r4, sp, #32
	mov	r8, r6
	b	.L1965
	.size	get_used_page_num, .-get_used_page_num
	.align	2
	.global	get_used_page_num_no_crosstalk
	.syntax unified
	.arm
	.type	get_used_page_num_no_crosstalk, %function
get_used_page_num_no_crosstalk:
	@ args = 0, pretend = 0, frame = 48
	@ frame_needed = 0, uses_anonymous_args = 0
	ldr	ip, [r0, #4]
	push	{r4, r5, r6, r7, r8, r9, r10, fp, lr}
	mov	fp, #0
	str	fp, [r2]
	sub	sp, sp, #52
	ldrh	r2, [ip, #20]
	cmp	r2, fp
	beq	.L1996
	mov	r7, r3
	mov	r10, r1
	movw	r2, #:lower16:.LC255
	movw	r1, #:lower16:.LC254
	cmp	r7, #0
	movt	r2, #:upper16:.LC255
	movt	r1, #:upper16:.LC254
	mov	r6, r0
	str	fp, [sp]
	mov	r5, fp
	str	fp, [sp, #4]
	mov	r8, #1
	str	r2, [sp, #12]
	mvn	r9, #0
	str	r1, [sp, #8]
	beq	.L2014
.L2042:
	ldr	r2, [r7, #4]
	ldrb	r2, [r2, r5]	@ zero_extendqisi2
	cmp	r2, #0
	addne	r4, sp, #16
	movne	fp, #0
	bne	.L1997
	ldrh	r4, [ip, #26]
	ldr	r2, [r7, #8]
	add	fp, r4, #64
	mla	fp, r5, fp, r2
	add	r4, fp, r4
.L1997:
	ldrh	ip, [ip, #28]
	add	r1, sp, #32
	ldrh	r2, [r10]
	mov	r0, r6
	strh	r5, [sp, #32]	@ movhi
	strh	ip, [sp, #36]	@ movhi
	strh	r2, [sp, #34]	@ movhi
	str	fp, [sp, #40]
	ldr	r2, [r6, #1980]
	str	r4, [sp, #44]
	blx	r2
	cmp	r0, #0
	cmpne	r0, #10
	movne	r0, #1
	moveq	r0, #0
	subeq	r2, r4, #1
	addeq	ip, r4, #9
	bne	.L2037
.L2001:
	ldrb	r3, [r2, #1]!	@ zero_extendqisi2
	cmp	r3, #255
	addeq	r0, r0, #1
	cmp	r2, ip
	bne	.L2001
	cmp	r0, #8
	bls	.L2002
	ldrb	r2, [r4]	@ zero_extendqisi2
	cmp	r2, #255
	beq	.L2038
.L2002:
	mov	r1, fp
	mov	r2, r4
	mov	r0, r6
	bl	nand_power_off_ecc_error
	cmp	r0, #0
	bne	.L2039
	ldr	r3, [sp, #4]
	cmn	r9, #1
	add	r3, r3, #1
	str	r3, [sp, #4]
	beq	.L2040
.L1999:
	ldr	ip, [r6, #4]
	add	r5, r5, #1
	add	r1, r8, #1
	ldrh	r2, [ip, #20]
	cmp	r2, r8
	bls	.L2041
	cmp	r7, #0
	mov	r8, r1
	bne	.L2042
.L2014:
	add	r4, sp, #16
	mov	fp, r7
	b	.L1997
.L2038:
	ldr	r3, [sp]
	cmn	r9, #1
	moveq	r9, r5
	add	r3, r3, #1
	cmp	r3, #3
	str	r3, [sp]
	bne	.L1999
.L2004:
	ldr	r3, [sp, #4]
	cmp	r3, r9
	beq	.L2021
	movw	r0, #:lower16:.LC256
	mov	r2, r3
	ldrh	r1, [r10]
	mov	r3, r9
	movt	r0, #:upper16:.LC256
	bl	NAND_Print
	ldr	r1, [r6, #1968]
	ldr	r2, [r7]
	ldr	r3, [r1, #172]
	cmp	r2, #0
	add	r3, r3, #1
	str	r3, [r1, #172]
	beq	.L2021
	mov	r0, #0
.L2009:
	ldr	r3, [r7, #4]
	ldrb	r3, [r3, r0]	@ zero_extendqisi2
	cmp	r3, #0
	beq	.L2008
	ldr	r1, [r6, #4]
	ldr	r3, [r6, #1968]
	ldr	r2, [r7, #8]
	ldrh	r1, [r1, #26]
	ldr	ip, [r3, #172]
	add	r2, r2, r1
	add	r3, r1, #64
	mla	r3, r0, r3, r2
	strb	ip, [r3, #14]
	ldr	r2, [r7]
.L2008:
	add	r0, r0, #1
	cmp	r2, r0
	bhi	.L2009
.L2021:
	mov	r0, r9
	add	sp, sp, #52
	@ sp needed
	pop	{r4, r5, r6, r7, r8, r9, r10, fp, pc}
.L2037:
	cmn	r9, #1
	mov	r2, r5
	ldrh	r1, [r10]
	moveq	r9, r5
	ldr	r0, [sp, #8]
	bl	NAND_Print
	b	.L1999
.L2039:
	ldr	r0, [sp, #12]
	bl	NAND_Print
	b	.L1999
.L2040:
	ldr	r2, [r7, #4]
	mov	r1, #1
	lsl	ip, r5, #2
	strb	r1, [r2, r5]
	add	r1, r4, #4
	ldr	lr, [r7, #12]
.L2005:
	ldrb	r3, [r4, #1]!	@ zero_extendqisi2
	cmp	r4, r1
	orr	r0, r3, r0, lsl #8
	bne	.L2005
	bic	r0, r0, #-268435456
	str	r0, [lr, ip]
	ldr	r2, [r7]
	cmp	r2, r8
	strcc	r8, [r7]
	b	.L1999
.L2041:
	cmn	r9, #1
	bne	.L2004
.L1996:
	mov	r9, r2
	mov	r0, r9
	add	sp, sp, #52
	@ sp needed
	pop	{r4, r5, r6, r7, r8, r9, r10, fp, pc}
	.size	get_used_page_num_no_crosstalk, .-get_used_page_num_no_crosstalk
	.align	2
	.global	set_spare_data
	.syntax unified
	.arm
	.type	set_spare_data, %function
set_spare_data:
	@ args = 0, pretend = 0, frame = 0
	@ frame_needed = 0, uses_anonymous_args = 0
	@ link register save eliminated.
	cmp	r3, #0
	bxeq	lr
	sub	r3, r3, #1
	add	r2, r0, r2
.L2045:
	lsl	ip, r3, #3
	sub	r3, r3, #1
	cmn	r3, #1
	lsr	ip, r1, ip
	strb	ip, [r2], #1
	bne	.L2045
	bx	lr
	.size	set_spare_data, .-set_spare_data
	.align	2
	.global	get_spare_data
	.syntax unified
	.arm
	.type	get_spare_data, %function
get_spare_data:
	@ args = 0, pretend = 0, frame = 0
	@ frame_needed = 0, uses_anonymous_args = 0
	@ link register save eliminated.
	cmp	r2, #0
	beq	.L2051
	add	r2, r2, r1
	add	r1, r0, r1
	add	r2, r0, r2
	mov	r0, #0
.L2050:
	ldrb	r3, [r1], #1	@ zero_extendqisi2
	cmp	r2, r1
	orr	r0, r3, r0, lsl #8
	bne	.L2050
	bx	lr
.L2051:
	mov	r0, r2
	bx	lr
	.size	get_spare_data, .-get_spare_data
	.align	2
	.global	set_oob_logic_page
	.syntax unified
	.arm
	.type	set_oob_logic_page, %function
set_oob_logic_page:
	@ args = 4, pretend = 0, frame = 0
	@ frame_needed = 0, uses_anonymous_args = 0
	push	{r4, r5, r6, r7, lr}
	mvn	r0, #63
	ldrh	ip, [sp, #20]
	lsr	r7, r2, #16
	orr	r0, r0, r2, lsr #24
	lsr	r6, r2, #8
	lsr	r4, r3, #24
	lsr	lr, r3, #16
	strb	r3, [r1, #10]
	lsr	r3, r3, #8
	lsr	r5, ip, #8
	strb	r2, [r1, #4]
	mvn	r2, #0
	strb	r7, [r1, #2]
	strb	r2, [r1]
	strb	r6, [r1, #3]
	strb	r0, [r1, #1]
	strb	ip, [r1, #6]
	strb	r5, [r1, #5]
	strb	r4, [r1, #7]
	strb	lr, [r1, #8]
	strb	r3, [r1, #9]
	pop	{r4, r5, r6, r7, pc}
	.size	set_oob_logic_page, .-set_oob_logic_page
	.align	2
	.global	set_oob_special_page
	.syntax unified
	.arm
	.type	set_oob_special_page, %function
set_oob_special_page:
	@ args = 4, pretend = 0, frame = 0
	@ frame_needed = 0, uses_anonymous_args = 0
	push	{r4, r5, r6, r7, lr}
	lsr	ip, r3, #16
	ldrh	r0, [sp, #20]
	lsr	r7, r2, #24
	lsr	r6, r2, #16
	lsr	r5, r2, #8
	lsr	lr, r3, #24
	strb	r3, [r1, #10]
	lsr	r3, r3, #8
	strb	r2, [r1, #4]
	lsr	r4, r0, #8
	mvn	r2, #0
	strb	r2, [r1]
	strb	r7, [r1, #1]
	strb	r6, [r1, #2]
	strb	r5, [r1, #3]
	strb	r0, [r1, #6]
	strb	r4, [r1, #5]
	strb	lr, [r1, #7]
	strb	ip, [r1, #8]
	strb	r3, [r1, #9]
	pop	{r4, r5, r6, r7, pc}
	.size	set_oob_special_page, .-set_oob_special_page
	.align	2
	.global	mark_free_block
	.syntax unified
	.arm
	.type	mark_free_block, %function
mark_free_block:
	@ args = 0, pretend = 0, frame = 32
	@ frame_needed = 0, uses_anonymous_args = 0
	push	{r4, r5, r6, r7, r8, r9, lr}
	sub	sp, sp, #44
	add	r6, sp, #24
	mov	r4, r0
	mov	r5, r1
	mov	r0, r6
	mov	r2, #16
	mov	r1, #165
	bl	NAND_Memset
	ldr	r1, [r4, #4]
	movw	r7, #21845
	ldrh	r8, [r5, #6]
	movt	r7, 21845
	ldrh	lr, [r5]
	mov	r2, r7
	ldr	ip, [r4, #284]
	mov	r0, r4
	ldrh	r9, [r1, #28]
	mov	r1, r6
	ldr	r3, [r5, #8]
	str	r8, [sp]
	mov	r8, #0
	strh	lr, [sp, #10]	@ movhi
	str	ip, [sp, #16]
	strh	r9, [sp, #12]	@ movhi
	str	r6, [sp, #20]
	strh	r8, [sp, #8]	@ movhi
	bl	set_oob_special_page
	ldr	r3, [r4, #1984]
	add	r1, sp, #8
	mov	r0, r4
	blx	r3
	ldr	ip, [r4, #4]
	mov	r2, r7
	ldrh	r9, [r5, #6]
	mov	lr, #1
	ldr	r3, [r5, #8]
	mov	r1, r6
	ldrh	ip, [ip, #28]
	mov	r0, r4
	str	r9, [sp]
	ldrh	r9, [r5]
	strh	ip, [sp, #12]	@ movhi
	ldr	ip, [r4, #284]
	strh	lr, [sp, #8]	@ movhi
	strh	r9, [sp, #10]	@ movhi
	str	ip, [sp, #16]
	str	r6, [sp, #20]
	bl	set_oob_special_page
	ldr	r3, [r4, #1984]
	add	r1, sp, #8
	mov	r0, r4
	blx	r3
	ldr	r0, [r4, #4]
	mov	r2, r7
	ldrh	lr, [r5, #6]
	mov	r1, r6
	ldr	r3, [r5, #8]
	ldrh	ip, [r0, #20]
	ldrh	r9, [r0, #28]
	mov	r0, r4
	str	lr, [sp]
	sub	ip, ip, #2
	ldrh	lr, [r5]
	strh	ip, [sp, #8]	@ movhi
	ldr	ip, [r4, #284]
	strh	lr, [sp, #10]	@ movhi
	strh	r9, [sp, #12]	@ movhi
	str	ip, [sp, #16]
	str	r6, [sp, #20]
	bl	set_oob_special_page
	ldr	r3, [r4, #1984]
	add	r1, sp, #8
	mov	r0, r4
	blx	r3
	ldr	lr, [r4, #4]
	mov	r2, r7
	ldrh	r9, [r5, #6]
	mov	r1, r6
	ldr	r3, [r5, #8]
	mov	r0, r4
	ldrh	ip, [lr, #20]
	ldrh	r7, [lr, #28]
	ldrh	r5, [r5]
	str	r9, [sp]
	sub	ip, ip, #1
	ldr	lr, [r4, #284]
	strh	ip, [sp, #8]	@ movhi
	str	r6, [sp, #20]
	str	lr, [sp, #16]
	strh	r7, [sp, #12]	@ movhi
	strh	r5, [sp, #10]	@ movhi
	bl	set_oob_special_page
	add	r1, sp, #8
	ldr	r3, [r4, #1984]
	mov	r0, r4
	blx	r3
	mov	r0, r8
	add	sp, sp, #44
	@ sp needed
	pop	{r4, r5, r6, r7, r8, r9, pc}
	.size	mark_free_block, .-mark_free_block
	.align	2
	.global	erase_block
	.syntax unified
	.arm
	.type	erase_block, %function
erase_block:
	@ args = 0, pretend = 0, frame = 16
	@ frame_needed = 0, uses_anonymous_args = 0
	push	{r4, r5, r6, r7, r8, lr}
	mov	r6, r0
	movw	r0, #:lower16:.LC257
	sub	sp, sp, #16
	mov	r4, r1
	movt	r0, #:upper16:.LC257
	ldrh	r1, [r1]
	mov	r5, r2
	bl	NAND_Print
	ldr	r2, [r6, #4]
	mov	r7, #0
	ldrh	r1, [r4]
	mov	r0, r6
	ldr	r3, [r6, #1976]
	ldrh	r2, [r2, #28]
	strh	r1, [sp, #2]	@ movhi
	mov	r1, sp
	strh	r7, [sp]	@ movhi
	strh	r2, [sp, #4]	@ movhi
	str	r7, [sp, #8]
	str	r7, [sp, #12]
	blx	r3
	subs	r8, r0, #0
	bne	.L2067
	mvn	r3, #0
	strh	r5, [r4, #6]	@ movhi
	str	r8, [r4, #20]
	add	r1, r6, #152
	str	r8, [r4, #24]
	str	r3, [r4, #8]
	b	.L2062
.L2064:
	ldrh	r0, [r3, #6]
	cmp	r5, r0
	bls	.L2068
	mov	r1, r3
.L2062:
	ldr	r3, [r1, #20]
	cmp	r3, #0
	bne	.L2064
	str	r4, [r1, #20]
	str	r3, [r4, #20]
	str	r1, [r4, #24]
.L2063:
	ldrh	r3, [r6, #22]
	mov	r1, r4
	mov	r0, r6
	add	r3, r3, #1
	strh	r3, [r6, #22]	@ movhi
	bl	mark_free_block
	ldr	r3, [r6, #4]
	mov	r2, #0
	mov	r0, r8
	ldrh	r3, [r3, #20]
	strh	r2, [r4, #2]	@ movhi
	strh	r3, [r4, #4]	@ movhi
	add	sp, sp, #16
	@ sp needed
	pop	{r4, r5, r6, r7, r8, pc}
.L2068:
	str	r4, [r3, #24]
	str	r3, [r4, #20]
	str	r4, [r1, #20]
	str	r1, [r4, #24]
	b	.L2063
.L2067:
	movw	r0, #:lower16:.LC258
	ldrh	r1, [r4]
	movt	r0, #:upper16:.LC258
	bl	NAND_Print
	ldr	r3, [r6, #1996]
	mov	r1, sp
	mov	r0, r6
	blx	r3
	ldrh	r3, [r6, #20]
	mov	r2, #255
	strh	r7, [r4, #4]	@ movhi
	mov	r0, r8
	strh	r2, [r4, #2]	@ movhi
	add	r3, r3, #1
	strh	r3, [r6, #20]	@ movhi
	add	sp, sp, #16
	@ sp needed
	pop	{r4, r5, r6, r7, r8, pc}
	.size	erase_block, .-erase_block
	.align	2
	.global	adjust_free_list
	.syntax unified
	.arm
	.type	adjust_free_list, %function
adjust_free_list:
	@ args = 0, pretend = 0, frame = 0
	@ frame_needed = 0, uses_anonymous_args = 0
	push	{r4, r5, r6, lr}
	mov	r4, r0
	bl	out_phy_block_from_free_list
	subs	r5, r0, #0
	beq	.L2072
.L2070:
	ldrh	r2, [r5, #6]
	mov	r1, r5
	mov	r0, r4
	add	r2, r2, #1
	uxth	r2, r2
	bl	erase_block
	mov	r1, r5
	mov	r0, r4
	bl	out_phy_block_from_free_list_by_block
	mov	r3, r0
	movw	r0, #:lower16:.LC260
	str	r3, [r4, #48]
	movt	r0, #:upper16:.LC260
	ldrh	r2, [r3, #6]
	ldrh	r1, [r3]
	bl	NAND_Print
	mov	r0, #0
	pop	{r4, r5, r6, pc}
.L2072:
	movw	r0, #:lower16:.LC259
	movt	r0, #:upper16:.LC259
	bl	NAND_Print
	b	.L2070
	.size	adjust_free_list, .-adjust_free_list
	.align	2
	.global	nand_dbg_zone_erase
	.syntax unified
	.arm
	.type	nand_dbg_zone_erase, %function
nand_dbg_zone_erase:
	@ args = 0, pretend = 0, frame = 0
	@ frame_needed = 0, uses_anonymous_args = 0
	ldr	r3, [r0, #4]
	add	r1, r1, r1, lsl #3
	push	{r4, r5, r6, lr}
	mov	r4, r0
	mov	r5, r2
	ldr	r3, [r3, #32]
	add	r1, r3, r1, lsl #2
	bl	out_phy_block_from_free_list_by_block
	mov	r2, r5
	mov	r1, r0
	mov	r0, r4
	pop	{r4, r5, r6, lr}
	b	erase_block
	.size	nand_dbg_zone_erase, .-nand_dbg_zone_erase
	.align	2
	.global	torture_block_and_mark
	.syntax unified
	.arm
	.type	torture_block_and_mark, %function
torture_block_and_mark:
	@ args = 0, pretend = 0, frame = 32
	@ frame_needed = 0, uses_anonymous_args = 0
	push	{r4, r5, r6, r7, r8, r9, lr}
	mov	r4, r0
	movw	r0, #:lower16:.LC257
	sub	sp, sp, #44
	mov	r5, #0
	mov	r6, r1
	movt	r0, #:upper16:.LC257
	ldrh	r1, [r1]
	str	r5, [sp, #16]
	str	r5, [sp, #8]
	str	r5, [sp, #12]
	str	r5, [sp, #19]	@ unaligned
	bl	NAND_Print_DBG
	ldr	r2, [r4, #4]
	mov	r0, r4
	ldrh	r3, [r6]
	add	r1, sp, #24
	strh	r5, [sp, #24]	@ movhi
	ldrh	r2, [r2, #28]
	str	r5, [sp, #32]
	str	r5, [sp, #36]
	strh	r3, [sp, #26]	@ movhi
	strh	r2, [sp, #28]	@ movhi
	ldr	r3, [r4, #1976]
	blx	r3
	subs	r5, r0, #0
	beq	.L2112
.L2089:
	movw	r0, #:lower16:.LC258
	ldrh	r1, [r6]
	movt	r0, #:upper16:.LC258
	bl	NAND_Print
.L2077:
	add	r1, sp, #24
	ldr	r3, [r4, #1996]
	mov	r0, r4
	blx	r3
	ldrh	r3, [r4, #20]
	mov	r1, #0
	mov	r2, #255
	strh	r1, [r6, #4]	@ movhi
	strh	r2, [r6, #2]	@ movhi
	add	r3, r3, #1
	strh	r3, [r4, #20]	@ movhi
.L2107:
	mov	r0, r5
	add	sp, sp, #44
	@ sp needed
	pop	{r4, r5, r6, r7, r8, r9, pc}
.L2112:
	ldrh	r3, [r6, #6]
	mov	r1, #165
	ldr	r2, [r4, #4]
	mov	r7, r5
	ldr	r0, [r4, #284]
	add	r3, r3, #1
	strh	r3, [r6, #6]	@ movhi
	ldrh	r2, [r2, #26]
	bl	memset
	movw	r3, #42405
	movt	r3, 42405
	str	r3, [sp, #16]
	str	r3, [sp, #8]
	str	r3, [sp, #12]
	str	r3, [sp, #19]	@ unaligned
.L2079:
	ldr	r3, [r4, #4]
	add	lr, sp, #8
	ldrh	r2, [r6]
	add	r1, sp, #24
	mov	r0, r4
	strh	r7, [sp, #24]	@ movhi
	ldrh	ip, [r3, #28]
	ldr	r3, [r4, #284]
	str	lr, [sp, #36]
	strh	ip, [sp, #28]	@ movhi
	str	r3, [sp, #32]
	strh	r2, [sp, #26]	@ movhi
	ldr	r3, [r4, #1984]
	blx	r3
	subs	r5, r0, #0
	bne	.L2078
	add	r7, r7, #1
	cmp	r7, #3
	bne	.L2079
	ldr	r3, [r4, #4]
	mov	r8, r5
	ldr	r0, [r4, #284]
	mov	r9, r5
	add	r7, sp, #23
	ldrh	r2, [r3, #26]
.L2095:
	mov	r1, #0
	bl	memset
	ldr	r3, [r4, #4]
	add	lr, sp, #8
	ldrh	r2, [r6]
	add	r1, sp, #24
	str	r9, [sp, #16]
	mov	r0, r4
	ldrh	ip, [r3, #28]
	ldr	r3, [r4, #284]
	str	r9, [sp, #8]
	str	r9, [sp, #12]
	str	r3, [sp, #32]
	str	r9, [sp, #19]	@ unaligned
	strh	r8, [sp, #24]	@ movhi
	str	lr, [sp, #36]
	strh	ip, [sp, #28]	@ movhi
	strh	r2, [sp, #26]	@ movhi
	ldr	r3, [r4, #1980]
	blx	r3
	subs	r5, r0, #0
	bne	.L2080
	ldr	lr, [r4, #4]
	ldr	r0, [r4, #284]
	ldrh	r2, [lr, #26]
	cmp	r2, #0
	beq	.L2081
	ldrb	r3, [r0]	@ zero_extendqisi2
	cmp	r3, #165
	bne	.L2082
	add	r1, r0, #1
	add	ip, r0, r2
.L2087:
	cmp	ip, r1
	beq	.L2081
	ldrb	r3, [r1], #1	@ zero_extendqisi2
	cmp	r3, #165
	beq	.L2087
.L2082:
	mov	r1, #165
	movw	r0, #:lower16:.LC263
	ldrh	r2, [r6]
	mov	r3, r8
	str	r1, [sp]
	movt	r0, #:upper16:.LC263
	ldr	r1, .L2114
	mov	r5, #1
	bl	NAND_Print
	b	.L2077
.L2081:
	add	r1, sp, #8
.L2085:
	ldrb	ip, [r1], #1	@ zero_extendqisi2
	cmp	ip, #165
	bne	.L2084
	cmp	r7, r1
	bne	.L2085
	add	r8, r8, #1
	cmp	r8, #3
	bne	.L2095
	ldrh	ip, [lr, #28]
	mov	r3, #0
	ldrh	r2, [r6]
	add	r1, sp, #24
	strh	r3, [sp, #24]	@ movhi
	mov	r0, r4
	str	r3, [sp, #32]
	str	r3, [sp, #36]
	strh	ip, [sp, #28]	@ movhi
	strh	r2, [sp, #26]	@ movhi
	ldr	r3, [r4, #1976]
	blx	r3
	subs	r5, r0, #0
	bne	.L2089
	ldrh	r0, [r6, #6]
	mvn	r3, #0
	str	r5, [r6, #20]
	add	r2, r4, #152
	str	r5, [r6, #24]
	add	r0, r0, #1
	str	r3, [r6, #8]
	uxth	r0, r0
	strh	r0, [r6, #6]	@ movhi
	b	.L2091
.L2093:
	ldrh	r1, [r3, #6]
	cmp	r0, r1
	bls	.L2113
	mov	r2, r3
.L2091:
	ldr	r3, [r2, #20]
	cmp	r3, #0
	bne	.L2093
	str	r6, [r2, #20]
	str	r3, [r6, #20]
	str	r2, [r6, #24]
.L2092:
	ldrh	r3, [r4, #22]
	mov	r1, r6
	mov	r0, r4
	add	r3, r3, #1
	strh	r3, [r4, #22]	@ movhi
	bl	mark_free_block
	ldr	r2, [r4, #4]
	mov	r3, #0
	mov	r5, r3
	ldrh	r2, [r2, #20]
	strh	r3, [r6, #2]	@ movhi
	strh	r2, [r6, #4]	@ movhi
	b	.L2107
.L2084:
	mov	r1, #165
	movw	r0, #:lower16:.LC264
	ldrh	r2, [r6]
	mov	r3, r8
	str	r1, [sp]
	movt	r0, #:upper16:.LC264
	ldr	r1, .L2114
	mov	r5, #1
	bl	NAND_Print
	b	.L2077
.L2113:
	str	r6, [r3, #24]
	str	r3, [r6, #20]
	str	r6, [r2, #20]
	str	r2, [r6, #24]
	b	.L2092
.L2078:
	movw	r0, #:lower16:.LC261
	mov	r3, r7
	ldrh	r2, [r6]
	movt	r0, #:upper16:.LC261
	ldr	r1, .L2114
	bl	NAND_Print
	b	.L2077
.L2080:
	movw	r0, #:lower16:.LC262
	mov	r3, r8
	ldrh	r2, [r6]
	movt	r0, #:upper16:.LC262
	ldr	r1, .L2114
	bl	NAND_Print
	b	.L2077
.L2115:
	.align	2
.L2114:
	.word	.LANCHOR2+764
	.size	torture_block_and_mark, .-torture_block_and_mark
	.align	2
	.global	_nftl_nand_copy_page
	.syntax unified
	.arm
	.type	_nftl_nand_copy_page, %function
_nftl_nand_copy_page:
	@ args = 4, pretend = 0, frame = 48
	@ frame_needed = 0, uses_anonymous_args = 0
	push	{r4, r5, r6, r7, r8, r9, lr}
	sub	sp, sp, #60
	ldr	lr, [r0, #4]
	mov	r8, r1
	mov	r9, r2
	add	r7, sp, #8
	ldrh	ip, [r2]
	mov	r4, r0
	ldrh	r2, [lr, #28]
	ldrh	r1, [r1]
	str	r3, [sp, #32]
	str	r3, [sp, #48]
	ldrh	r3, [sp, #88]
	strh	r2, [sp, #28]	@ movhi
	strh	r2, [sp, #44]	@ movhi
	strh	r1, [sp, #26]	@ movhi
	add	r1, sp, #24
	strh	ip, [sp, #42]	@ movhi
	strh	r3, [sp, #24]	@ movhi
	strh	r3, [sp, #40]	@ movhi
	ldr	r2, [r0, #1980]
	str	r7, [sp, #36]
	str	r7, [sp, #52]
	blx	r2
	ldrb	r6, [sp, #10]	@ zero_extendqisi2
	cmp	r0, #10
	ldrb	r2, [sp, #9]	@ zero_extendqisi2
	movne	r5, r0
	ldrh	ip, [r9, #6]
	mov	r1, r7
	ldrb	lr, [sp, #11]	@ zero_extendqisi2
	mov	r0, r4
	ldr	r3, [r8, #8]
	moveq	r5, #0
	orr	r2, r6, r2, lsl #8
	ldrb	r6, [sp, #12]	@ zero_extendqisi2
	add	ip, ip, #1
	uxth	ip, ip
	orr	r2, lr, r2, lsl #8
	str	ip, [sp]
	orr	r2, r6, r2, lsl #8
	bl	set_oob_special_page
	ldr	r3, [r4, #1984]
	mov	r0, r4
	add	r1, sp, #40
	blx	r3
	orr	r0, r5, r0, lsl #8
	add	sp, sp, #60
	@ sp needed
	pop	{r4, r5, r6, r7, r8, r9, pc}
	.size	_nftl_nand_copy_page, .-_nftl_nand_copy_page
	.align	2
	.global	set_no_use_page
	.syntax unified
	.arm
	.type	set_no_use_page, %function
set_no_use_page:
	@ args = 0, pretend = 0, frame = 0
	@ frame_needed = 0, uses_anonymous_args = 0
	@ link register save eliminated.
	mvn	r0, #0
	mvn	r2, #85
	mvn	r3, #68
	strb	r0, [r1]
	strb	r2, [r1, #1]
	strb	r3, [r1, #2]
	bx	lr
	.size	set_no_use_page, .-set_no_use_page
	.align	2
	.global	set_start_block_flag
	.syntax unified
	.arm
	.type	set_start_block_flag, %function
set_start_block_flag:
	@ args = 0, pretend = 0, frame = 0
	@ frame_needed = 0, uses_anonymous_args = 0
	lsr	ip, r2, #24
	lsr	r0, r2, #16
	lsr	r3, r2, #8
	strb	r2, [r1, #6]
	str	lr, [sp, #-4]!
	strb	ip, [r1, #3]
	mvn	lr, #0
	mvn	ip, #85
	mvn	r2, #17
	strb	lr, [r1]
	strb	ip, [r1, #1]
	strb	r2, [r1, #2]
	strb	r0, [r1, #4]
	strb	r3, [r1, #5]
	ldr	pc, [sp], #4
	.size	set_start_block_flag, .-set_start_block_flag
	.align	2
	.global	set_end_block_flag
	.syntax unified
	.arm
	.type	set_end_block_flag, %function
set_end_block_flag:
	@ args = 0, pretend = 0, frame = 0
	@ frame_needed = 0, uses_anonymous_args = 0
	@ link register save eliminated.
	mvn	r0, #0
	mvn	r2, #85
	mvn	r3, #51
	strb	r0, [r1]
	strb	r2, [r1, #1]
	strb	r3, [r1, #2]
	bx	lr
	.size	set_end_block_flag, .-set_end_block_flag
	.align	2
	.global	build_zone_list_first
	.syntax unified
	.arm
	.type	build_zone_list_first, %function
build_zone_list_first:
	@ args = 0, pretend = 0, frame = 40
	@ frame_needed = 0, uses_anonymous_args = 0
	push	{r4, r5, r6, r7, r8, r9, r10, fp, lr}
	mov	r4, r0
	movw	r0, #:lower16:.LC265
	sub	sp, sp, #44
	movt	r0, #:upper16:.LC265
	str	r1, [sp, #4]
	bl	NAND_Print_DBG
	ldr	r3, [r4, #24]
	ldr	r5, [r4, #40]
	cmp	r3, #0
	beq	.L2124
	ldr	r6, [r4, #4]
	ldr	r0, [r4, #32]
	ldrb	r1, [r6, #8]	@ zero_extendqisi2
	add	r0, r3, r0
	bl	__aeabi_uidiv
	ldrh	r1, [r6, #20]
	bl	__aeabi_uidiv
	subs	r8, r0, #0
	mov	r3, #0
	strh	r3, [r4, #18]	@ movhi
	beq	.L2144
.L2143:
	add	r5, r5, #36
	mov	r7, #0
	mov	fp, #255
	b	.L2142
.L2126:
	ldrh	r1, [r5, #-36]
	ldr	r2, [r4, #4]
	strh	fp, [r5, #-34]	@ movhi
.L2128:
	mvn	r3, #0
	str	r7, [r5, #-16]
	strh	r3, [r5, #-32]	@ movhi
	ldrh	ip, [r2, #24]
	str	r7, [r5, #-24]
	str	r7, [r5, #-20]
	add	r0, ip, r3
	str	r6, [r4, #44]
	cmp	r1, r0
	ldrh	r1, [r4, #18]
	beq	.L2141
	cmp	r1, r8
	add	r5, r5, #36
	bcs	.L2145
	ldr	r6, [r4, #4]
.L2142:
	ldrh	r2, [r5, #-36]
	add	r1, sp, #24
	ldrh	ip, [r6, #28]
	sub	r6, r5, #36
	ldr	r3, [r4, #284]
	mov	r0, r4
	strh	r2, [sp, #26]	@ movhi
	add	r2, sp, #8
	strh	ip, [sp, #28]	@ movhi
	mov	r9, r5
	str	r3, [sp, #32]
	strh	r7, [sp, #24]	@ movhi
	str	r2, [sp, #36]
	str	r6, [r4, #44]
	ldr	r3, [r4, #1992]
	blx	r3
	cmp	r0, #1
	bne	.L2126
	ldr	r3, [r4, #1976]
	add	r1, sp, #24
	mov	r0, r4
	blx	r3
	subs	r10, r0, #0
	bne	.L2153
	ldrh	r2, [r4, #18]
	add	r2, r2, #1
	uxth	r2, r2
	cmp	r2, #1
	strh	r2, [r4, #18]	@ movhi
	strh	r10, [r5, #-34]	@ movhi
	strh	r10, [r5, #-30]	@ movhi
	beq	.L2129
	ldrh	r1, [r5, #-36]
	ldr	r2, [r4, #4]
	b	.L2128
.L2145:
	mov	r6, r9
.L2141:
	cmp	r1, #1
	bls	.L2125
	cmn	r8, #1
	sub	r1, r1, #1
	strh	r1, [r4, #18]	@ movhi
	beq	.L2136
	ldrh	r3, [r6]
	cmp	r0, r3
	beq	.L2136
	cmp	ip, r3
	bls	.L2136
	mov	r5, #0
	mov	r7, #255
	b	.L2140
.L2139:
	ldr	r2, [r4, #4]
	ldrh	r3, [r6, #36]!
	ldrh	r1, [r2, #24]
	cmp	r1, r3
	bls	.L2136
.L2140:
	ldrh	ip, [r2, #28]
	add	r1, sp, #24
	ldr	r2, [r4, #284]
	mov	r0, r4
	strh	r3, [sp, #26]	@ movhi
	add	r3, sp, #8
	str	r3, [sp, #36]
	strh	r5, [sp, #24]	@ movhi
	strh	ip, [sp, #28]	@ movhi
	str	r2, [sp, #32]
	ldr	r3, [r4, #1992]
	blx	r3
	cmp	r0, #1
	strhne	r7, [r6, #2]	@ movhi
	bne	.L2139
	add	r1, sp, #24
	ldr	r3, [r4, #1976]
	mov	r0, r4
	blx	r3
	subs	r8, r0, #0
	add	r1, sp, #24
	mov	r0, r4
	beq	.L2138
	strh	r7, [r6, #2]	@ movhi
	ldr	r3, [r4, #1996]
	blx	r3
	b	.L2139
.L2136:
	mov	r0, #0
.L2151:
	add	sp, sp, #44
	@ sp needed
	pop	{r4, r5, r6, r7, r8, r9, r10, fp, pc}
.L2124:
	strh	r3, [r4, #18]	@ movhi
	mvn	r8, #0
	ldr	r6, [r4, #4]
	b	.L2143
.L2153:
	add	r1, sp, #24
	strh	fp, [r5, #-34]	@ movhi
	ldr	r3, [r4, #1996]
	mov	r0, r4
	blx	r3
	ldrh	r1, [r5, #-36]
	ldr	r2, [r4, #4]
	b	.L2128
.L2129:
	mov	r2, #16
	mov	r1, #255
	add	r0, sp, #8
	bl	NAND_Memset
	ldr	r2, [sp, #4]
	add	r1, sp, #8
	mov	r0, r4
	bl	set_start_block_flag
	ldr	r2, [r4, #4]
	add	r3, sp, #8
	ldrh	r1, [r5, #-36]
	strh	r10, [sp, #24]	@ movhi
	ldrh	r0, [r2, #20]
	ldrh	ip, [r2, #28]
	strh	r1, [sp, #26]	@ movhi
	cmp	r0, #0
	ldr	r0, [r4, #284]
	strh	ip, [sp, #28]	@ movhi
	str	r3, [sp, #36]
	str	r0, [sp, #32]
	beq	.L2130
.L2131:
	ldr	r2, [r4, #1984]
	add	r1, sp, #24
	mov	r0, r4
	add	r10, r10, #1
	blx	r2
	ldr	r2, [r4, #4]
	ldrh	r1, [sp, #24]
	ldrh	r0, [r2, #20]
	add	r1, r1, #1
	strh	r1, [sp, #24]	@ movhi
	cmp	r0, r10
	bhi	.L2131
	ldrh	r1, [r5, #-36]
.L2130:
	str	r5, [r4, #40]
	b	.L2128
.L2144:
	mov	r1, r8
.L2125:
	movw	r0, #:lower16:.LC266
	movt	r0, #:upper16:.LC266
	bl	NAND_Print
	mov	r0, #1
	b	.L2151
.L2138:
	mov	r2, #16
	mov	r1, #255
	add	r0, sp, #8
	bl	NAND_Memset
	add	r1, sp, #8
	mov	r0, r4
	bl	set_end_block_flag
	ldr	r2, [r4, #4]
	add	r1, sp, #24
	ldrh	ip, [r6]
	mov	r0, r4
	ldr	r3, [r4, #284]
	ldrh	r2, [r2, #28]
	strh	ip, [sp, #26]	@ movhi
	add	ip, sp, #8
	str	r3, [sp, #32]
	strh	r8, [sp, #24]	@ movhi
	str	ip, [sp, #36]
	strh	r2, [sp, #28]	@ movhi
	ldr	r3, [r4, #1984]
	blx	r3
	mov	r0, r8
	b	.L2151
	.size	build_zone_list_first, .-build_zone_list_first
	.align	2
	.global	get_bad_flag_from_oob
	.syntax unified
	.arm
	.type	get_bad_flag_from_oob, %function
get_bad_flag_from_oob:
	@ args = 0, pretend = 0, frame = 0
	@ frame_needed = 0, uses_anonymous_args = 0
	@ link register save eliminated.
	mov	r3, #0
	add	r1, r0, #4
.L2155:
	ldrb	r2, [r0, #1]!	@ zero_extendqisi2
	cmp	r1, r0
	orr	r3, r2, r3, lsl #8
	bne	.L2155
	adds	r0, r3, #0
	movne	r0, #1
	bx	lr
	.size	get_bad_flag_from_oob, .-get_bad_flag_from_oob
	.align	2
	.global	get_block_used_count_from_oob
	.syntax unified
	.arm
	.type	get_block_used_count_from_oob, %function
get_block_used_count_from_oob:
	@ args = 0, pretend = 0, frame = 0
	@ frame_needed = 0, uses_anonymous_args = 0
	@ link register save eliminated.
	add	r3, r0, #6
	mov	r2, #0
	add	r0, r0, #10
.L2158:
	ldrb	r1, [r3, #1]!	@ zero_extendqisi2
	cmp	r3, r0
	orr	r2, r1, r2, lsl #8
	bne	.L2158
	mov	r0, r2
	bx	lr
	.size	get_block_used_count_from_oob, .-get_block_used_count_from_oob
	.align	2
	.global	get_logic_page_from_oob
	.syntax unified
	.arm
	.type	get_logic_page_from_oob, %function
get_logic_page_from_oob:
	@ args = 0, pretend = 0, frame = 0
	@ frame_needed = 0, uses_anonymous_args = 0
	@ link register save eliminated.
	mov	r3, #0
	add	r1, r0, #4
.L2161:
	ldrb	r2, [r0, #1]!	@ zero_extendqisi2
	cmp	r1, r0
	orr	r3, r2, r3, lsl #8
	bne	.L2161
	bic	r0, r3, #-268435456
	bx	lr
	.size	get_logic_page_from_oob, .-get_logic_page_from_oob
	.align	2
	.global	get_special_data_from_oob
	.syntax unified
	.arm
	.type	get_special_data_from_oob, %function
get_special_data_from_oob:
	@ args = 0, pretend = 0, frame = 0
	@ frame_needed = 0, uses_anonymous_args = 0
	@ link register save eliminated.
	mov	r3, r0
	mov	r0, #0
	add	r1, r3, #4
.L2164:
	ldrb	r2, [r3, #1]!	@ zero_extendqisi2
	cmp	r3, r1
	orr	r0, r2, r0, lsl #8
	bne	.L2164
	bx	lr
	.size	get_special_data_from_oob, .-get_special_data_from_oob
	.align	2
	.global	get_erase_count_from_oob
	.syntax unified
	.arm
	.type	get_erase_count_from_oob, %function
get_erase_count_from_oob:
	@ args = 0, pretend = 0, frame = 0
	@ frame_needed = 0, uses_anonymous_args = 0
	@ link register save eliminated.
	ldrb	r2, [r0, #5]	@ zero_extendqisi2
	ldrb	r0, [r0, #6]	@ zero_extendqisi2
	orr	r0, r0, r2, lsl #8
	bx	lr
	.size	get_erase_count_from_oob, .-get_erase_count_from_oob
	.align	2
	.global	is_ftl_start_flag_page
	.syntax unified
	.arm
	.type	is_ftl_start_flag_page, %function
is_ftl_start_flag_page:
	@ args = 0, pretend = 0, frame = 0
	@ frame_needed = 0, uses_anonymous_args = 0
	@ link register save eliminated.
	ldrb	r3, [r0, #1]	@ zero_extendqisi2
	cmp	r3, #170
	ldrbeq	r0, [r0, #2]	@ zero_extendqisi2
	subeq	r0, r0, #238
	clzeq	r0, r0
	lsreq	r0, r0, #5
	movne	r0, #0
	bx	lr
	.size	is_ftl_start_flag_page, .-is_ftl_start_flag_page
	.align	2
	.global	is_ftl_end_flag_page
	.syntax unified
	.arm
	.type	is_ftl_end_flag_page, %function
is_ftl_end_flag_page:
	@ args = 0, pretend = 0, frame = 0
	@ frame_needed = 0, uses_anonymous_args = 0
	@ link register save eliminated.
	ldrb	r3, [r0, #1]	@ zero_extendqisi2
	cmp	r3, #170
	ldrbeq	r0, [r0, #2]	@ zero_extendqisi2
	subeq	r0, r0, #204
	clzeq	r0, r0
	lsreq	r0, r0, #5
	movne	r0, #0
	bx	lr
	.size	is_ftl_end_flag_page, .-is_ftl_end_flag_page
	.align	2
	.global	is_ftl_special_data
	.syntax unified
	.arm
	.type	is_ftl_special_data, %function
is_ftl_special_data:
	@ args = 0, pretend = 0, frame = 0
	@ frame_needed = 0, uses_anonymous_args = 0
	@ link register save eliminated.
	ldrb	r0, [r0, #1]	@ zero_extendqisi2
	sub	r0, r0, #170
	clz	r0, r0
	lsr	r0, r0, #5
	bx	lr
	.size	is_ftl_special_data, .-is_ftl_special_data
	.align	2
	.global	is_ftl_logic_page_data
	.syntax unified
	.arm
	.type	is_ftl_logic_page_data, %function
is_ftl_logic_page_data:
	@ args = 0, pretend = 0, frame = 0
	@ frame_needed = 0, uses_anonymous_args = 0
	@ link register save eliminated.
	ldrb	r0, [r0, #1]	@ zero_extendqisi2
	and	r0, r0, #240
	sub	r0, r0, #192
	clz	r0, r0
	lsr	r0, r0, #5
	bx	lr
	.size	is_ftl_logic_page_data, .-is_ftl_logic_page_data
	.align	2
	.global	is_nouse_page
	.syntax unified
	.arm
	.type	is_nouse_page, %function
is_nouse_page:
	@ args = 0, pretend = 0, frame = 0
	@ frame_needed = 0, uses_anonymous_args = 0
	@ link register save eliminated.
	mov	ip, #0
	sub	r3, r0, #1
	add	r1, r0, #9
.L2177:
	ldrb	r2, [r3, #1]!	@ zero_extendqisi2
	cmp	r2, #255
	addeq	ip, ip, #1
	cmp	r3, r1
	bne	.L2177
	cmp	ip, #8
	ldrbhi	r0, [r0]	@ zero_extendqisi2
	subhi	r0, r0, #255
	clzhi	r0, r0
	lsrhi	r0, r0, #5
	movls	r0, #0
	bx	lr
	.size	is_nouse_page, .-is_nouse_page
	.align	2
	.global	is_fill_page
	.syntax unified
	.arm
	.type	is_fill_page, %function
is_fill_page:
	@ args = 0, pretend = 0, frame = 0
	@ frame_needed = 0, uses_anonymous_args = 0
	@ link register save eliminated.
	mov	r3, #0
	add	r1, r0, #4
.L2182:
	ldrb	r2, [r0, #1]!	@ zero_extendqisi2
	cmp	r1, r0
	orr	r3, r2, r3, lsl #8
	bne	.L2182
	movw	r0, #21845
	movt	r0, 21845
	sub	r0, r3, r0
	clz	r0, r0
	lsr	r0, r0, #5
	bx	lr
	.size	is_fill_page, .-is_fill_page
	.align	2
	.global	is_phy_mapping_page
	.syntax unified
	.arm
	.type	is_phy_mapping_page, %function
is_phy_mapping_page:
	@ args = 0, pretend = 0, frame = 0
	@ frame_needed = 0, uses_anonymous_args = 0
	@ link register save eliminated.
	mov	r3, #0
	add	r1, r0, #4
.L2185:
	ldrb	r2, [r0, #1]!	@ zero_extendqisi2
	cmp	r1, r0
	orr	r3, r2, r3, lsl #8
	bne	.L2185
	movw	r0, #65535
	movt	r0, 43690
	sub	r0, r3, r0
	clz	r0, r0
	lsr	r0, r0, #5
	bx	lr
	.size	is_phy_mapping_page, .-is_phy_mapping_page
	.align	2
	.global	is_function_info_page
	.syntax unified
	.arm
	.type	is_function_info_page, %function
is_function_info_page:
	@ args = 0, pretend = 0, frame = 0
	@ frame_needed = 0, uses_anonymous_args = 0
	@ link register save eliminated.
	mov	r3, #0
	add	r1, r0, #4
.L2188:
	ldrb	r2, [r0, #1]!	@ zero_extendqisi2
	cmp	r1, r0
	orr	r3, r2, r3, lsl #8
	bne	.L2188
	lsr	r3, r3, #16
	mov	r0, #0
	movt	r0, 43537
	lsl	r3, r3, #16
	sub	r0, r3, r0
	clz	r0, r0
	lsr	r0, r0, #5
	bx	lr
	.size	is_function_info_page, .-is_function_info_page
	.align	2
	.global	is_power_down_info_page
	.syntax unified
	.arm
	.type	is_power_down_info_page, %function
is_power_down_info_page:
	@ args = 0, pretend = 0, frame = 0
	@ frame_needed = 0, uses_anonymous_args = 0
	@ link register save eliminated.
	mov	r3, #0
	add	r1, r0, #4
.L2191:
	ldrb	r2, [r0, #1]!	@ zero_extendqisi2
	cmp	r1, r0
	orr	r3, r2, r3, lsl #8
	bne	.L2191
	movw	r0, #13107
	movt	r0, 43537
	sub	r0, r3, r0
	clz	r0, r0
	lsr	r0, r0, #5
	bx	lr
	.size	is_power_down_info_page, .-is_power_down_info_page
	.align	2
	.global	get_logic_page_map
	.syntax unified
	.arm
	.type	get_logic_page_map, %function
get_logic_page_map:
	@ args = 0, pretend = 0, frame = 0
	@ frame_needed = 0, uses_anonymous_args = 0
	ldr	r3, [r0, #28]
	cmp	r3, r1
	bls	.L2194
	cmp	r1, #262144
	movcc	r3, #0
	subcs	r3, r1, #262144
	ubfxcs	r1, r1, #0, #18
	lsrcs	r3, r3, #18
	addcs	r3, r3, #1
.L2196:
	add	r0, r0, r3, lsl #2
	ldr	r0, [r0, #52]
	add	r0, r0, r1, lsl #2
	bx	lr
.L2194:
	movw	r0, #:lower16:.LC267
	mov	r2, r1
	push	{r4, lr}
	movt	r0, #:upper16:.LC267
	ldr	r1, .L2200
	bl	NAND_Print
	mov	r0, #0
	pop	{r4, pc}
.L2201:
	.align	2
.L2200:
	.word	.LANCHOR2+788
	.size	get_logic_page_map, .-get_logic_page_map
	.align	2
	.global	recover_logic_page_mapping
	.syntax unified
	.arm
	.type	recover_logic_page_mapping, %function
recover_logic_page_mapping:
	@ args = 0, pretend = 0, frame = 16
	@ frame_needed = 0, uses_anonymous_args = 0
	cmp	r3, #0
	beq	.L2221
	push	{r4, r5, r6, r7, r8, r9, r10, fp, lr}
	mov	r6, r1
	mov	r10, r3
	movw	r1, #:lower16:.LC269
	movw	r3, #:lower16:.LC271
	sub	sp, sp, #20
	movw	fp, #:lower16:.LC270
	movt	r3, #:upper16:.LC271
	movt	r1, #:upper16:.LC269
	mov	r5, r0
	sub	r7, r2, #4
	str	r3, [sp]
	movt	fp, #:upper16:.LC270
	str	r1, [sp, #12]
	mov	r4, #0
	b	.L2213
.L2204:
	cmn	r3, #1
	beq	.L2212
	mov	r2, r4
	ldrh	r1, [r6]
	mov	r0, fp
	bl	NAND_Print
.L2212:
	ldrh	r3, [r6, #4]
	ldr	r2, [r5, #4]
	add	r3, r3, #1
	ldrh	r2, [r2, #20]
	uxth	r3, r3
	strh	r3, [r6, #4]	@ movhi
	cmp	r2, r3
	bcc	.L2222
.L2206:
	add	r4, r4, #1
	cmp	r10, r4
	beq	.L2223
.L2213:
	ldr	r3, [r7, #4]!
	ldr	r2, [r5, #28]
	cmp	r3, r2
	bcs	.L2204
	mov	r1, r3
	mov	r0, r5
	bl	get_logic_page_map
	subs	r9, r0, #0
	beq	.L2224
	ldrh	r8, [r9, #2]
	movw	r3, #65535
	cmp	r8, r3
	beq	.L2208
	ldr	r1, [r5, #4]
	add	r8, r8, r8, lsl #3
	lsl	r8, r8, #2
	ldr	r2, [r1, #32]
	add	r3, r2, r8
	cmp	r6, r3
	beq	.L2209
	mov	r1, r3
	mov	r0, r5
	str	r2, [sp, #8]
	str	r3, [sp, #4]
	bl	phy_block_from_invalid_page_incr
	ldr	r3, [sp, #4]
	ldr	r1, [r5, #4]
	ldr	r2, [sp, #8]
	ldrh	r0, [r3, #4]
	ldrh	r3, [r1, #20]
	cmp	r0, r3
	bhi	.L2225
.L2208:
	ldrh	r3, [r9]
	bfi	r3, r4, #0, #12
	add	r4, r4, #1
	strh	r3, [r9]	@ movhi
	cmp	r10, r4
	ldrh	r3, [r6]
	strh	r3, [r9, #2]	@ movhi
	bne	.L2213
.L2223:
	mov	r0, #0
	add	sp, sp, #20
	@ sp needed
	pop	{r4, r5, r6, r7, r8, r9, r10, fp, pc}
.L2222:
	ldr	r0, [sp]
	bl	NAND_Print
	b	.L2206
.L2209:
	ldrh	r0, [r6, #4]
	add	r0, r0, #1
	strh	r0, [r6, #4]	@ movhi
	ldrh	r0, [r3, #4]
	ldrh	r3, [r1, #20]
	cmp	r0, r3
	bls	.L2208
.L2225:
	ldrh	r1, [r2, r8]
	ldr	r0, [sp, #12]
	bl	NAND_Print
	b	.L2208
.L2224:
	movw	r0, #:lower16:.LC268
	movt	r0, #:upper16:.LC268
	bl	NAND_Print_DBG
	ldrh	r3, [r6, #4]
	add	r3, r3, #1
	strh	r3, [r6, #4]	@ movhi
	b	.L2206
.L2221:
	mov	r0, #0
	bx	lr
	.size	recover_logic_page_mapping, .-recover_logic_page_mapping
	.align	2
	.global	malloc_logic_page_map
	.syntax unified
	.arm
	.type	malloc_logic_page_map, %function
malloc_logic_page_map:
	@ args = 0, pretend = 0, frame = 0
	@ frame_needed = 0, uses_anonymous_args = 0
	push	{r4, r5, r6, r7, r8, r9, r10, lr}
	add	r5, r0, #48
	mov	r4, r1
	mov	r7, r0
	add	r1, r0, #148
	mov	r3, r5
	mov	r2, #0
.L2227:
	str	r2, [r3, #4]!
	cmp	r3, r1
	bne	.L2227
	cmp	r4, #262144
	bcc	.L2235
	ubfx	r8, r4, #0, #18
	sub	r9, r4, #6553600
	mov	r6, #0
	b	.L2229
.L2232:
	cmp	r4, r8
	beq	.L2228
.L2229:
	mov	r0, #1048576
	sub	r4, r4, #262144
	bl	NAND_Malloc
	cmp	r0, #0
	mov	r2, #1048576
	mov	r1, #255
	str	r0, [r5, #4]!
	beq	.L2241
	bl	NAND_Memset
	cmp	r4, r9
	add	r6, r6, #1
	bne	.L2232
	cmp	r4, #0
	bne	.L2243
	mov	r0, #0
	pop	{r4, r5, r6, r7, r8, r9, r10, pc}
.L2235:
	mov	r8, r4
	mov	r6, #0
.L2228:
	lsl	r8, r8, #2
	add	r7, r7, r6, lsl #2
	mov	r0, r8
	bl	nftl_malloc
	cmp	r0, #0
	str	r0, [r7, #52]
	beq	.L2241
	mov	r2, r8
	mov	r1, #255
	bl	NAND_Memset
	mov	r0, #0
	pop	{r4, r5, r6, r7, r8, r9, r10, pc}
.L2241:
	movw	r0, #:lower16:.LC272
	mov	r1, r6
	movt	r0, #:upper16:.LC272
	bl	NAND_Print
	mvn	r0, #1
	pop	{r4, r5, r6, r7, r8, r9, r10, pc}
.L2243:
	movw	r0, #:lower16:.LC272
	mov	r1, r4
	movt	r0, #:upper16:.LC272
	bl	NAND_Print
	mvn	r0, #1
	pop	{r4, r5, r6, r7, r8, r9, r10, pc}
	.size	malloc_logic_page_map, .-malloc_logic_page_map
	.align	2
	.global	zone_param_init
	.syntax unified
	.arm
	.type	zone_param_init, %function
zone_param_init:
	@ args = 0, pretend = 0, frame = 0
	@ frame_needed = 0, uses_anonymous_args = 0
	push	{r4, r5, r6, r7, r8, lr}
	mov	r5, r1
	ldr	r1, [r0, #4]
	mov	r4, r0
	mov	r6, r2
	mov	r7, r3
	ldrh	r0, [r1, #26]
	bl	nftl_malloc
	cmp	r0, #0
	str	r0, [r4, #284]
	beq	.L2247
	ldr	r3, [r4, #4]
	ldrh	r0, [r3, #26]
	bl	nftl_malloc
	cmp	r0, #0
	str	r0, [r4, #288]
	beq	.L2247
	ldr	r1, [r4, #4]
	add	ip, r5, r5, lsl #3
	mov	r3, #0
	str	r6, [r4, #24]
	str	r7, [r4, #32]
	mov	r0, r6
	ldr	r2, [r1, #32]
	strh	r5, [r4, #36]	@ movhi
	strh	r3, [r4, #18]	@ movhi
	strh	r3, [r4, #20]	@ movhi
	add	r2, r2, ip, lsl #2
	strh	r3, [r4, #22]	@ movhi
	str	r3, [r4, #44]
	str	r2, [r4, #40]
	ldrb	r1, [r1, #8]	@ zero_extendqisi2
	bl	__aeabi_uidiv
	mov	r1, r0
	mov	r0, r4
	bl	malloc_logic_page_map
	subs	r5, r0, #0
	bne	.L2258
	ldr	r3, [r4, #4]
	mov	r2, #320
	ldrh	r3, [r3, #20]
	str	r2, [r4, #316]
	lsl	r3, r3, #2
	add	r0, r3, r2
	str	r3, [r4, #308]
	str	r0, [r4, #300]
	bl	nftl_malloc
	cmp	r0, #0
	str	r0, [r4, #296]
	beq	.L2259
	ldr	ip, [r4, #308]
	mov	r1, #255
	str	r0, [r4, #304]
	ldr	r2, [r4, #300]
	add	r3, r0, ip
	str	r3, [r4, #312]
	str	r3, [r4, #1968]
	bl	NAND_Memset
	ldr	r3, [r4, #308]
	ldr	r0, [r4, #300]
	str	r3, [r4, #340]
	str	r0, [r4, #332]
	bl	nftl_malloc
	cmp	r0, #0
	str	r0, [r4, #328]
	beq	.L2260
	ldr	ip, [r4, #340]
	mov	r1, #255
	str	r0, [r4, #336]
	ldr	r2, [r4, #332]
	add	r3, r0, ip
	str	r3, [r4, #344]
	bl	NAND_Memset
	ldr	r2, [r4, #308]
	ldr	r3, [r4, #316]
